Module: target.asm

Segment: TEXT BYTE USE16 00000956 bytes
0000  00 00				add		[bx+si],al
0002  00 00				add		[bx+si],al
0004  00 00				add		[bx+si],al
0006  00 00				add		[bx+si],al
0008  00 00				add		[bx+si],al
000A  00 00				add		[bx+si],al
000C  00 00				add		[bx+si],al
000E  00 00				add		[bx+si],al
0010  00 00				add		[bx+si],al
0012  00 00				add		[bx+si],al
0014  00 00				add		[bx+si],al
0016  00 00				add		[bx+si],al
0018  00 00				add		[bx+si],al
001A  00 00				add		[bx+si],al
001C  00 00				add		[bx+si],al
001E  00 00				add		[bx+si],al
0020  00 00				add		[bx+si],al
0022  00 00				add		[bx+si],al
0024  00 00				add		[bx+si],al
0026  00 00				add		[bx+si],al
0028  00 00				add		[bx+si],al
002A  00 00				add		[bx+si],al
002C  00 00				add		[bx+si],al
002E  00 00				add		[bx+si],al
0030  00 00				add		[bx+si],al
0032  00 00				add		[bx+si],al
0034  00 00				add		[bx+si],al
0036  00 00				add		[bx+si],al
0038  00 00				add		[bx+si],al
003A  00 00				add		[bx+si],al
003C  00 00				add		[bx+si],al
003E  00 00				add		[bx+si],al
0040  00 00				add		[bx+si],al
0042  00 00				add		[bx+si],al
0044  00 00				add		[bx+si],al
0046  00 00				add		[bx+si],al
0048  00 00				add		[bx+si],al
004A  00 00				add		[bx+si],al
004C  00 00				add		[bx+si],al
004E  00 00				add		[bx+si],al
0050  00 00				add		[bx+si],al
0052  00 00				add		[bx+si],al
0054  00 00				add		[bx+si],al
0056  00 00				add		[bx+si],al
0058  00 00				add		[bx+si],al
005A  00 00				add		[bx+si],al
005C  00 00				add		[bx+si],al
005E  00 00				add		[bx+si],al
0060  00 00				add		[bx+si],al
0062  00 00				add		[bx+si],al
0064  00 00				add		[bx+si],al
0066  00 00				add		[bx+si],al
0068  00 00				add		[bx+si],al
006A  00 00				add		[bx+si],al
006C  00 00				add		[bx+si],al
006E  00 00				add		[bx+si],al
0070  00 00				add		[bx+si],al
0072  00 00				add		[bx+si],al
0074  00 00				add		[bx+si],al
0076  00 00				add		[bx+si],al
0078  00 00				add		[bx+si],al
007A  00 00				add		[bx+si],al
007C  00 00				add		[bx+si],al
007E  00 00				add		[bx+si],al
0080  00 00				add		[bx+si],al
0082  00 00				add		[bx+si],al
0084  00 00				add		[bx+si],al
0086  00 00				add		[bx+si],al
0088  00 00				add		[bx+si],al
008A  00 00				add		[bx+si],al
008C  00 00				add		[bx+si],al
008E  00 00				add		[bx+si],al
0090  00 00				add		[bx+si],al
0092  00 00				add		[bx+si],al
0094  00 00				add		[bx+si],al
0096  00 00				add		[bx+si],al
0098  00 00				add		[bx+si],al
009A  00 00				add		[bx+si],al
009C  00 00				add		[bx+si],al
009E  00 00				add		[bx+si],al
00A0  00 00				add		[bx+si],al
00A2  00 00				add		[bx+si],al
00A4  00 00				add		[bx+si],al
00A6  00 00				add		[bx+si],al
00A8  00 00				add		[bx+si],al
00AA  00 00				add		[bx+si],al
00AC  00 00				add		[bx+si],al
00AE  00 00				add		[bx+si],al
00B0  00 00				add		[bx+si],al
00B2  00 00				add		[bx+si],al
00B4  00 00				add		[bx+si],al
00B6  00 00				add		[bx+si],al
00B8  00 00				add		[bx+si],al
00BA  00 00				add		[bx+si],al
00BC  00 00				add		[bx+si],al
00BE  00 00				add		[bx+si],al
00C0  00 00				add		[bx+si],al
00C2  00 00				add		[bx+si],al
00C4  00 00				add		[bx+si],al
00C6  00 00				add		[bx+si],al
00C8  00 00				add		[bx+si],al
00CA  00 00				add		[bx+si],al
00CC  00 00				add		[bx+si],al
00CE  00 00				add		[bx+si],al
00D0  00 00				add		[bx+si],al
00D2  00 00				add		[bx+si],al
00D4  00 00				add		[bx+si],al
00D6  00 00				add		[bx+si],al
00D8  00 00				add		[bx+si],al
00DA  00 00				add		[bx+si],al
00DC  00 00				add		[bx+si],al
00DE  00 00				add		[bx+si],al
00E0  00 00				add		[bx+si],al
00E2  00 00				add		[bx+si],al
00E4  00 00				add		[bx+si],al
00E6  00 00				add		[bx+si],al
00E8  00 00				add		[bx+si],al
00EA  00 00				add		[bx+si],al
00EC  00 00				add		[bx+si],al
00EE  00 00				add		[bx+si],al
00F0  00 00				add		[bx+si],al
00F2  00 00				add		[bx+si],al
00F4  00 00				add		[bx+si],al
00F6  00 00				add		[bx+si],al
00F8  00 00				add		[bx+si],al
00FA  00 00				add		[bx+si],al
00FC  00 00				add		[bx+si],al
00FE  00 00				add		[bx+si],al
0100  EB 1C				jmp		L$1
0102  90				nop
0103  01 00				add		[bx+si],ax
0105  02 00				add		al,[bx+si]
0107  80 02 43				add		byte ptr [bp+si],0x43
010A  50				push		ax
010B  20 20				and		[bx+si],ah
010D  20 20				and		[bx+si],ah
010F  20 20				and		[bx+si],ah
0111  01 00				add		[bx+si],ax
0113  02 00				add		al,[bx+si]
0115  80 00 02				add		byte ptr [bx+si],0x02
0118  02 00				add		al,[bx+si]
011A  43				inc		bx
011B  50				push		ax
011C  00 00				add		[bx+si],al
011E				L$1:
011E  E8 3D 02				call		L$21
0121  73 07				jae		L$2
0123  E8 1C 03				call		L$43
0126  B4 4C				mov		ah,0x4c
0128  CD 21				int		0x21
012A				L$2:
012A  B8 0C 44				mov		ax,0x440c
012D  BB 02 00				mov		bx,0x0002
0130  B9 7F 03				mov		cx,0x037f
0133  8D 16 68 02			lea		dx,L$17
0137  CD 21				int		0x21
0139  72 10				jb		L$3
013B  8D 3E 68 02			lea		di,L$17
013F  80 7D 06 01			cmp		byte ptr 0x6[di],0x01
0143  75 06				jne		L$3
0145  8B 45 10				mov		ax,0x10[di]
0148  A2 64 02				mov		ds:[0x264],al
014B				L$3:
014B  B4 0F				mov		ah,0x0f
014D  CD 10				int		0x10
014F  88 26 65 02			mov		ds:[0x265],ah
0153  33 DB				xor		bx,bx
0155  B4 45				mov		ah,0x45
0157  CD 21				int		0x21
0159  8B E8				mov		bp,ax
015B  B4 3E				mov		ah,0x3e
015D  CD 21				int		0x21
015F  BB 02 00				mov		bx,0x0002
0162  B4 45				mov		ah,0x45
0164  CD 21				int		0x21
0166  B8 03 33				mov		ax,0x3303
0169  CD 21				int		0x21
016B  72 22				jb		L$4
016D  80 FA 00				cmp		dl,0x00
0170  74 1D				je		L$4
0172  B8 02 57				mov		ax,0x5702
0175  8B DD				mov		bx,bp
0177  BE 03 01				mov		si,0x0103
017A  B9 0D 00				mov		cx,0x000d
017D  BF 11 01				mov		di,0x0111
0180  CD 21				int		0x21
0182  72 0B				jb		L$4
0184  B8 04 57				mov		ax,0x5704
0187  BB 01 00				mov		bx,0x0001
018A  BF 11 01				mov		di,0x0111
018D  CD 21				int		0x21
018F				L$4:
018F  8B 0E 4E 09			mov		cx,ds:[0x94e]
0193  BA 4C 09				mov		dx,0x094c
0196  BB 01 00				mov		bx,0x0001
0199  B4 40				mov		ah,0x40
019B  CD 21				int		0x21
019D				L$5:
019D  FC				cld
019E  BA 56 09				mov		dx,0x0956
01A1  B9 00 10				mov		cx,0x1000
01A4  8B DD				mov		bx,bp
01A6  B4 3F				mov		ah,0x3f
01A8  CD 21				int		0x21
01AA  0B C0				or		ax,ax
01AC  75 02				jne		L$7
01AE				L$6:
01AE  CD 20				int		0x20
01B0				L$7:
01B0  8B C8				mov		cx,ax
01B2  8B F2				mov		si,dx
01B4				L$8:
01B4  AC				lodsb
01B5  3C 1A				cmp		al,0x1a
01B7  74 F5				je		L$6
01B9  3C 0D				cmp		al,0x0d
01BB  75 07				jne		L$9
01BD  C6 06 67 02 01			mov		byte ptr ds:[0x267],0x01
01C2  EB 4C				jmp		L$13
01C4				L$9:
01C4  3C 0A				cmp		al,0x0a
01C6  75 06				jne		L$10
01C8  FE 06 66 02			inc		byte ptr ds:[0x266]
01CC  EB 42				jmp		L$13
01CE				L$10:
01CE  3C 08				cmp		al,0x08
01D0  75 0D				jne		L$11
01D2  80 3E 67 02 01			cmp		byte ptr ds:[0x267],0x01
01D7  74 37				je		L$13
01D9  FE 0E 67 02			dec		byte ptr ds:[0x267]
01DD  EB 31				jmp		L$13
01DF				L$11:
01DF  3C 09				cmp		al,0x09
01E1  75 12				jne		L$12
01E3  8A 26 67 02			mov		ah,ds:[0x267]
01E7  80 C4 07				add		ah,0x07
01EA  80 E4 F8				and		ah,0xf8
01ED  FE C4				inc		ah
01EF  88 26 67 02			mov		ds:[0x267],ah
01F3  EB 1B				jmp		L$13
01F5				L$12:
01F5  3C 07				cmp		al,0x07
01F7  74 17				je		L$13
01F9  FE 06 67 02			inc		byte ptr ds:[0x267]
01FD  8A 26 67 02			mov		ah,ds:[0x267]
0201  3A 26 65 02			cmp		ah,ds:[0x265]
0205  76 09				jbe		L$13
0207  FE 06 66 02			inc		byte ptr ds:[0x266]
020B  C6 06 67 02 01			mov		byte ptr ds:[0x267],0x01
0210				L$13:
0210  8A D0				mov		dl,al
0212  B4 02				mov		ah,0x02
0214  CD 21				int		0x21
0216  8A 26 66 02			mov		ah,ds:[0x266]
021A  3A 26 64 02			cmp		ah,ds:[0x264]
021E  72 3B				jb		L$15
0220  55				push		bp
0221  56				push		si
0222  51				push		cx
0223  B8 02 00				mov		ax,0x0002
0226  BB 02 00				mov		bx,0x0002
0229  33 C9				xor		cx,cx
022B  B2 00				mov		dl,0x00
022D  B6 FF				mov		dh,0xff
022F  E8 10 02				call		L$43
0232  B4 0C				mov		ah,0x0c
0234  B0 08				mov		al,0x08
0236  CD 21				int		0x21
0238  3C 00				cmp		al,0x00
023A  75 04				jne		L$14
023C  B4 08				mov		ah,0x08
023E  CD 21				int		0x21
0240				L$14:
0240  8B 0E 54 09			mov		cx,ds:[0x954]
0244  BA 50 09				mov		dx,0x0950
0247  BB 02 00				mov		bx,0x0002
024A  B4 40				mov		ah,0x40
024C  CD 21				int		0x21
024E  59				pop		cx
024F  5E				pop		si
0250  5D				pop		bp
0251  C6 06 67 02 01			mov		byte ptr ds:[0x267],0x01
0256  C6 06 66 02 01			mov		byte ptr ds:[0x266],0x01
025B				L$15:
025B  49				dec		cx
025C  74 03				je		L$16
025E  E9 53 FF				jmp		L$8
0261				L$16:
0261  E9 39 FF				jmp		L$5
0264  19 50 01				sbb		0x1[bx+si],dx
0267  01                                              .
0268				L$17:
0268  00 00				add		[bx+si],al
026A  0E				push		cs
026B  00 00 00 00                                     DD	ds:[0x0]
026F  00 00				add		[bx+si],al
0271  00 00				add		[bx+si],al
0273  00 00				add		[bx+si],al
0275  00 00				add		[bx+si],al
0277  00 00				add		[bx+si],al
0279  00 00				add		[bx+si],al
027B  00 00				add		[bx+si],al
027D  00 00				add		[bx+si],al
027F  00 00				add		[bx+si],al
0281  00 00				add		[bx+si],al
0283  00 00				add		[bx+si],al
0285  00 FF				add		bh,bh
0287  FF				????
0288  FF				????
0289  FF 00				inc		word ptr [bx+si]
028B  00 00				add		[bx+si],al
028D  00 00				add		[bx+si],al
028F  00 00				add		[bx+si],al
0291  00 FF				add		bh,bh
0293  FF				????
0294  FF				????
0295  FF 00				inc		word ptr [bx+si]
0297  00 00				add		[bx+si],al
0299  00 00				add		[bx+si],al
029B  00 00				add		[bx+si],al
029D  00 FF				add		bh,bh
029F  FF				????
02A0  FF				????
02A1  FF				????
02A2  FF				????
02A3  FF				????
02A4  FF				????
02A5  FF 00				inc		word ptr [bx+si]
02A7  00 00				add		[bx+si],al
02A9  00 FF				add		bh,bh
02AB  FF				????
02AC  FF				????
02AD  FF 00				inc		word ptr [bx+si]
02AF  00 00				add		[bx+si],al
02B1  00 00				add		[bx+si],al
02B3  00 00				add		[bx+si],al
02B5				L$18:
02B5  0D 0A 00				or		ax,0x000a
02B8  00 00				add		[bx+si],al
02BA  00 00				add		[bx+si],al
02BC  0A 00				or		al,[bx+si]
02BE				L$19:
02BE  24 24				and		al,0x24
02C0  24 24				and		al,0x24
02C2  24 24				and		al,0x24
02C4  24 24				and		al,0x24
02C6  24 24				and		al,0x24
02C8  24 24				and		al,0x24
02CA  24 24				and		al,0x24
02CC  24 24				and		al,0x24
02CE  24 24				and		al,0x24
02D0  24 24				and		al,0x24
02D2  24 24				and		al,0x24
02D4  24 24				and		al,0x24
02D6  24 24				and		al,0x24
02D8  24 24				and		al,0x24
02DA  24 24				and		al,0x24
02DC  24 24				and		al,0x24
02DE  24 24				and		al,0x24
02E0  24 24				and		al,0x24
02E2  24 24				and		al,0x24
02E4  24 24				and		al,0x24
02E6  24 24				and		al,0x24
02E8  24 24				and		al,0x24
02EA  24 24				and		al,0x24
02EC  24 24				and		al,0x24
02EE  24 24				and		al,0x24
02F0  24 24				and		al,0x24
02F2  24 24				and		al,0x24
02F4  24 24				and		al,0x24
02F6  24 24				and		al,0x24
02F8  24 24				and		al,0x24
02FA  24 24				and		al,0x24
02FC  24 24				and		al,0x24
02FE  24 4D				and		al,0x4d
0300  53				push		bx
0301  20 44 4F				and		0x4f[si],al
0304  53				push		bx
0305  20 56 65				and		0x65[bp],dl
0308  72 73				jb		L$23
030A  69 6F 6E 20 34			imul		bp,0x6e[bx],0x3420
030F  2E 30 30				xor		cs:[bx+si],dh
0312  20 28				and		[bx+si],ch
0314  43				inc		bx
0315  29 43 6F				sub		0x6f[bp+di],ax
0318  70 79				jo		L$25
031A  72 69				jb		L$24
031C  67 68 74 20			push		0x2074
0320  31 39				xor		[bx+di],di
0322  38 38				cmp		[bx+si],bh
0324  20 4D 69				and		0x69[di],cl
0327  63 72 6F				arpl		0x6f[bp+si],si
032A  73 6F				jae		L$26
032C  66 74 20				je		L$20
032F  43				inc		bx
0330  6F				outsw
0331  72 70				jb		L$27
0333  4C				dec		sp
0334  69 63 65 6E 73			imul		sp,0x65[bp+di],0x736e
0339  65 64 20 4D 61			and
033E  74 65				je		L$28
0340  72 69				jb		L$29
0342  61				popa
0343  6C				insb
0344  20 2D				and		[di],ch
0346  20 50 72				and		0x72[bx+si],dl
0349  6F				outsw
034A  70 65				jo		L$30
034C  72 74				jb		L$31
034E  79                                              y
034F				L$20:
034F  20 6F                                           DW		     0x034f
				; The label referred to here is an undefined location
L$22
0351  66 20 4D 69			and		0x69[di],cl
0355  63 72 6F				arpl		0x6f[bp+si],si
0358  73 6F				jae		L$32
035A  66 74 20				je		L$23
035D  20                                               
035E				L$21:
035E  50				push		ax
035F  53				push		bx
0360  52				push		dx
0361  06				push		es
0362  57				push		di
0363  33 C9				xor		cx,cx
0365  8E C1				mov		es,cx
0367  33 FF				xor		di,di
0369  B8 2E 12				mov		ax,0x122e
036C  B2 00				mov		dl,0x00
036E  CD 2F				int		0x2f
0370				L$22:
0370  8C 06 84 02			mov		word ptr ds:[0x284],es
0374  89 3E 82 02			mov		ds:[0x282],di
0378  B8 2E 12				mov		ax,0x122e
037B  B2 02				mov		dl,0x02
037D				L$23:
037D  CD 2F				int		0x2f
037F  8C 06 8C 02			mov		word ptr ds:[0x28c],es
0383  89 3E                                           .>
0385				L$24:
0385  8A 02 B8 2E                                     DD	ds:[0x28a]
0389  12 B2 04 CD			adc		dh,-0x32fc[bp+si]
038D  2F				das
038E  8C 06 9C 02			mov		word ptr ds:[0x29c],es
0392  89                                              .
0393				L$25:
0393  3E 9A 02 B8 2E 12			call		0x0000b802
0399  B2 06				mov		dl,0x06
039B				L$26:
039B  CD 2F				int		0x2f
039D  8C 06 80 02			mov		word ptr ds:[0x280],es
03A1  89 3E                                           .>
03A3				L$27:
03A3  7E 02 E8 40                                     DD	ds:[0x27e]
03A7				L$28:
03A7  05 8C 06				add		ax,0x068c
03AA  7C 02 89 3E                                     DD	ds:[0x27c]
03AE				L$29 equ $-3
03AE  7A 02 8C 06                                     DD	ds:[0x27a]
03B2				L$30 equ $-1
03B2  98 02 89 3E                                     DD	ds:[0x298]
03B6  96 02 E8 4E                                     DD	ds:[0x296]
03BA  05 8C 06				add		ax,0x068c
03BD  90 02 89 3E                                     DD	ds:[0x290]
03C1  8E 02 B8 2E                                     DD	ds:[0x28e]
03C5				L$31:
03C5  12 B2 08 CD			adc		dh,-0x32f8[bp+si]
03C9				L$32:
03C9  2F				das
03CA  8C 06 A4 02			mov		word ptr ds:[0x2a4],es
03CE  89 3E A2 02			mov		ds:[0x2a2],di
03D2  E8 6D 05				call		L$175
03D5  89 3E A6 02			mov		ds:[0x2a6],di
03D9  E8 16 00				call		L$35
03DC  E8 2B 00				call		L$37
03DF  51				push		cx
03E0  E8 3A 00				call		L$38
03E3  72 08				jb		L$33
03E5  59				pop		cx
03E6  5F				pop		di
03E7  07				pop		es
03E8  5A				pop		dx
03E9  5B				pop		bx
03EA  58				pop		ax
03EB  EB 04				jmp		L$34
03ED				L$33:
03ED  83 C4 0C				add		sp,0x000c
03F0  F9				stc
03F1				L$34:
03F1  C3				ret
03F2				L$35:
03F2  50				push		ax
03F3  56				push		si
03F4  1E				push		ds
03F5  B8 00 63				mov		ax,0x6300
03F8  CD 21				int		0x21
03FA  1E				push		ds
03FB  07				pop		es
03FC  1F				pop		ds
03FD  72 08				jb		L$36
03FF  89 36 AE 02			mov		ds:[0x2ae],si
0403  8C 06 B0 02			mov		word ptr ds:[0x2b0],es
0407				L$36:
0407  5E				pop		si
0408  58				pop		ax
0409  C3				ret
040A				L$37:
040A  B8 00 44				mov		ax,0x4400
040D  BB 01 00				mov		bx,0x0001
0410  33 D2				xor		dx,dx
0412  CD 21				int		0x21
0414  80 CE 01				or		dh,0x01
0417  B8 01 44				mov		ax,0x4401
041A  CD 21				int		0x21
041C  C3				ret
041D				L$38:
041D  B4 30				mov		ah,0x30
041F  CD 21				int		0x21
0421  3D 04 00				cmp		ax,0x0004
0424  75 03				jne		L$39
0426  F8				clc
0427  EB 18				jmp		L$42
0429				L$39:
0429  3D 02 00				cmp		ax,0x0002
042C  73 05				jae		L$40
042E  BB FF FF				mov		bx,0xffff
0431  EB 03				jmp		L$41
0433				L$40:
0433  BB 02 00				mov		bx,0x0002
0436				L$41:
0436  B8 01 00				mov		ax,0x0001
0439  B9 00 00				mov		cx,0x0000
043C  B2 00				mov		dl,0x00
043E  B6 FF				mov		dh,0xff
0440  F9				stc
0441				L$42:
0441  C3				ret
0442				L$43:
0442  50				push		ax
0443  53				push		bx
0444  51				push		cx
0445  55				push		bp
0446  57				push		di
0447  06				push		es
0448  52				push		dx
0449  8B E9				mov		bp,cx
044B  89 1E B2 02			mov		ds:[0x2b2],bx
044F  88 36 B7 02			mov		ds:[0x2b7],dh
0453  E8 75 02				call		L$112
0456  0B C9				or		cx,cx
0458  74 1C				je		L$48
045A  0B ED				or		bp,bp
045C  75 05				jne		L$44
045E  E8 26 00				call		L$52
0461  EB 03				jmp		L$45
0463				L$44:
0463  E8 6D 01				call		L$86
0466				L$45:
0466  72 08				jb		L$46
0468  5A				pop		dx
0469  E8 C2 00				call		L$69
046C  07				pop		es
046D  5F				pop		di
046E  EB 04				jmp		L$47
0470				L$46:
0470  83 C4 06				add		sp,0x0006
0473  F9				stc
0474				L$47:
0474  EB 04				jmp		L$49
0476				L$48:
0476  07				pop		es
0477  5F				pop		di
0478  5A				pop		dx
0479  F9				stc
047A				L$49:
047A  72 06				jb		L$50
047C  5D				pop		bp
047D  59				pop		cx
047E  5B				pop		bx
047F  58				pop		ax
0480  EB 04				jmp		L$51
0482				L$50:
0482  83 C4 08				add		sp,0x0008
0485  F9				stc
0486				L$51:
0486  C3				ret
0487				L$52:
0487  50				push		ax
0488  53				push		bx
0489  52				push		dx
048A  8B 1E B2 02			mov		bx,ds:[0x2b2]
048E  83 FB FF				cmp		bx,0xffff
0491  75 05				jne		L$53
0493  E8 2C 00				call		L$58
0496  EB 03				jmp		L$54
0498				L$53:
0498  E8 5C 00				call		L$63
049B				L$54:
049B  73 0F				jae		L$55
049D  B4 59				mov		ah,0x59
049F  BB 00 00				mov		bx,0x0000
04A2  CD 21				int		0x21
04A4  32 E4				xor		ah,ah
04A6  83 C4 06				add		sp,0x0006
04A9  F9				stc
04AA  EB 10				jmp		L$56
04AC				L$55:
04AC  83 FB FF				cmp		bx,0xffff
04AF  74 0B				je		L$56
04B1  3B C1				cmp		ax,cx
04B3  74 07				je		L$56
04B5  E8 6D 00				call		L$68
04B8  83 C4 06				add		sp,0x0006
04BB  F9				stc
04BC				L$56:
04BC  72 03				jb		L$57
04BE  5A				pop		dx
04BF  5B				pop		bx
04C0  58				pop		ax
04C1				L$57:
04C1  C3				ret
04C2				L$58:
04C2  1E				push		ds
04C3  06				push		es
04C4  1F				pop		ds
04C5  83 F9 01				cmp		cx,0x0001
04C8  75 1B				jne		L$60
04CA  B4 02				mov		ah,0x02
04CC  26 8A 15				mov		dl,es:[di]
04CF  CD 21				int		0x21
04D1  1F				pop		ds
04D2  8A C2				mov		al,dl
04D4  E8 6E 00				call		L$71
04D7  1E				push		ds
04D8  06				push		es
04D9  1F				pop		ds
04DA  73 07				jae		L$59
04DC  26 8A 55 01			mov		dl,es:0x1[di]
04E0  CD 21				int		0x21
04E2  F8				clc
04E3				L$59:
04E3  EB 0F				jmp		L$62
04E5				L$60:
04E5  B4 02				mov		ah,0x02
04E7				L$61:
04E7  0B C9				or		cx,cx
04E9  74 09				je		L$62
04EB  26 8A 15				mov		dl,es:[di]
04EE  CD 21				int		0x21
04F0  47				inc		di
04F1  49				dec		cx
04F2  75 F3				jne		L$61
04F4				L$62:
04F4  F8				clc
04F5  1F				pop		ds
04F6  C3				ret
04F7				L$63:
04F7  33 C0				xor		ax,ax
04F9  0B C9				or		cx,cx
04FB  74 27				je		L$67
04FD  1E				push		ds
04FE  06				push		es
04FF  1F				pop		ds
0500  B4 40				mov		ah,0x40
0502  8B D7				mov		dx,di
0504  83 F9 01				cmp		cx,0x0001
0507  75 18				jne		L$65
0509  CD 21				int		0x21
050B  1F				pop		ds
050C  50				push		ax
050D  26 8A 05				mov		al,es:[di]
0510  E8 32 00				call		L$71
0513  58				pop		ax
0514  1E				push		ds
0515  06				push		es
0516  1F				pop		ds
0517  73 06				jae		L$64
0519  F8				clc
051A  B4 40				mov		ah,0x40
051C  42				inc		dx
051D  CD 21				int		0x21
051F				L$64:
051F  EB 02				jmp		L$66
0521				L$65:
0521  CD 21				int		0x21
0523				L$66:
0523  1F				pop		ds
0524				L$67:
0524  C3				ret
0525				L$68:
0525  B8 27 00				mov		ax,0x0027
0528  BB 04 00				mov		bx,0x0004
052B  B5 01				mov		ch,0x01
052D  C3				ret
052E				L$69:
052E  80 FE FF				cmp		dh,0xff
0531  74 11				je		L$70
0533  F6 C6 80				test		dh,0x80
0536  75 0C				jne		L$70
0538  1E				push		ds
0539  07				pop		es
053A  8D 3E B5 02			lea		di,L$18
053E  B9 02 00				mov		cx,0x0002
0541  E8 43 FF				call		L$52
0544				L$70:
0544  C3				ret
0545				L$71:
0545  06				push		es
0546  57				push		di
0547  C4 3E AE 02			les		di,ds:[0x2ae]
054B  0B FF				or		di,di
054D  74 17				je		L$74
054F				L$72:
054F  26 83 3D 00			cmp		word ptr es:[di],0x0000
0553  F8				clc
0554  74 10				je		L$74
0556  26 3A 05				cmp		al,es:[di]
0559  72 07				jb		L$73
055B  26 3A 45 01			cmp		al,es:0x1[di]
055F  77 01				ja		L$73
0561  F9				stc
0562				L$73:
0562  47				inc		di
0563  47				inc		di
0564  EB E9				jmp		L$72
0566				L$74:
0566  5F				pop		di
0567  07				pop		es
0568  C3				ret
0569				L$75:
0569  8F 06 B8 02			pop		word ptr ds:[0x2b8]
056D  33 DB				xor		bx,bx
056F  93				xchg		ax,bx
0570  92				xchg		ax,dx
0571				L$76:
0571  F7 36 BC 02			div		word ptr ds:[0x2bc]
0575  93				xchg		ax,bx
0576  F7 36 BC 02			div		word ptr ds:[0x2bc]
057A  83 FA 09				cmp		dx,0x0009
057D  76 05				jbe		L$77
057F  80 C2 37				add		dl,0x37
0582  EB 03				jmp		L$78
0584				L$77:
0584  80 C2 30				add		dl,0x30
0587				L$78:
0587  52				push		dx
0588  41				inc		cx
0589  0B C0				or		ax,ax
058B  75 04				jne		L$79
058D  0B DB				or		bx,bx
058F  74 39				je		L$85
0591				L$79:
0591  83 F9 03				cmp		cx,0x0003
0594  75 0D				jne		L$81
0596  80 7C 0A 2C			cmp		byte ptr 0xa[si],0x2c
059A  75 05				jne		L$80
059C  FF 36 C5 02			push		word ptr ds:[0x2c5]
05A0  41				inc		cx
05A1				L$80:
05A1  EB 22				jmp		L$84
05A3				L$81:
05A3  83 F9 06				cmp		cx,0x0006
05A6  75 0D				jne		L$83
05A8  80 7C 0A 2C			cmp		byte ptr 0xa[si],0x2c
05AC  75 05				jne		L$82
05AE  FF 36 C5 02			push		word ptr ds:[0x2c5]
05B2  41				inc		cx
05B3				L$82:
05B3  EB 10				jmp		L$84
05B5				L$83:
05B5  83 F9 09				cmp		cx,0x0009
05B8  75 0B				jne		L$84
05BA  80 7C 0A 2C			cmp		byte ptr 0xa[si],0x2c
05BE  75 05				jne		L$84
05C0  FF 36 C5 02			push		word ptr ds:[0x2c5]
05C4  41				inc		cx
05C5				L$84:
05C5  93				xchg		ax,bx
05C6  33 D2				xor		dx,dx
05C8  EB A7				jmp		L$76
05CA				L$85:
05CA  33 D2				xor		dx,dx
05CC  33 C0				xor		ax,ax
05CE  FF 36 B8 02			push		word ptr ds:[0x2b8]
05D2  C3				ret
05D3				L$86:
05D3  33 D2				xor		dx,dx
05D5  0B C9				or		cx,cx
05D7  74 21				je		L$90
05D9  B4 25				mov		ah,0x25
05DB  B0 00				mov		al,0x00
05DD				L$87:
05DD  26 38 25				cmp		es:[di],ah
05E0  75 0A				jne		L$88
05E2  26 38 65 01			cmp		es:0x1[di],ah
05E6  74 04				je		L$88
05E8  3A C4				cmp		al,ah
05EA  75 0E				jne		L$90
05EC				L$88:
05EC  26 8A 05				mov		al,es:[di]
05EF  E8 53 FF				call		L$71
05F2  73 01				jae		L$89
05F4  47				inc		di
05F5				L$89:
05F5  47				inc		di
05F6  42				inc		dx
05F7  49				dec		cx
05F8  75 E3				jne		L$87
05FA				L$90:
05FA  56				push		si
05FB  87 CA				xchg		dx,cx
05FD  0B ED				or		bp,bp
05FF  74 33				je		L$96
0601  4D				dec		bp
0602  83 3E BA 02 00			cmp		word ptr ds:[0x2ba],0x0000
0607  75 2B				jne		L$96
0609				L$91:
0609  8A 44 06				mov		al,0x6[si]
060C  04 30				add		al,0x30
060E  26 3A 45 01			cmp		al,es:0x1[di]
0612  75 02				jne		L$92
0614  EB 1E				jmp		L$96
0616				L$92:
0616  3C 30				cmp		al,0x30
0618  75 04				jne		L$93
061A  0B D2				or		dx,dx
061C  74 04				je		L$94
061E				L$93:
061E  03 34				add		si,[si]
0620  EB E7				jmp		L$91
0622				L$94:
0622  80 3E B7 02 FF			cmp		byte ptr ds:[0x2b7],0xff
0627  75 08				jne		L$95
0629  42				inc		dx
062A  42				inc		dx
062B  49				dec		cx
062C  49				dec		cx
062D  4F				dec		di
062E  4F				dec		di
062F  EB 03				jmp		L$96
0631				L$95:
0631  BA FF FF				mov		dx,0xffff
0634				L$96:
0634  57				push		di
0635  2B F9				sub		di,cx
0637  E8 4D FE				call		L$52
063A  5F				pop		di
063B  59				pop		cx
063C  73 03				jae		L$97
063E  EB 57				jmp		L$108
0640  90				nop
0641				L$97:
0641  51				push		cx
0642  8B CA				mov		cx,dx
0644  80 7C 06 00			cmp		byte ptr 0x6[si],0x00
0648  74 0D				je		L$100
064A  0B C9				or		cx,cx
064C  74 06				je		L$98
064E  49				dec		cx
064F  49				dec		cx
0650  47				inc		di
0651  47				inc		di
0652  EB 01				jmp		L$99
0654				L$98:
0654  5E				pop		si
0655				L$99:
0655  EB 10				jmp		L$103
0657				L$100:
0657  0B C9				or		cx,cx
0659  75 03				jne		L$101
065B  5E				pop		si
065C  EB 09				jmp		L$103
065E				L$101:
065E  83 F9 FF				cmp		cx,0xffff
0661  75 02				jne		L$102
0663  33 C9				xor		cx,cx
0665				L$102:
0665  0B FF				or		di,di
0667				L$103:
0667  74 2E				je		L$108
0669  55				push		bp
066A  57				push		di
066B  06				push		es
066C  51				push		cx
066D  33 C9				xor		cx,cx
066F  83 3E BA 02 00			cmp		word ptr ds:[0x2ba],0x0000
0674  75 05				jne		L$104
0676  E8 7A 01				call		L$148
0679  EB 03				jmp		L$105
067B				L$104:
067B  E8 20 00				call		L$109
067E				L$105:
067E  72 07				jb		L$106
0680  59				pop		cx
0681  07				pop		es
0682  5F				pop		di
0683  5D				pop		bp
0684  5E				pop		si
0685  EB 04				jmp		L$107
0687				L$106:
0687  83 C4 0A				add		sp,0x000a
068A  F9				stc
068B				L$107:
068B  83 3E BA 02 00			cmp		word ptr ds:[0x2ba],0x0000
0690  75 05				jne		L$108
0692  72 03				jb		L$108
0694  E9 3C FF				jmp		L$86
0697				L$108:
0697  C7 06 BA 02 00 00			mov		word ptr ds:[0x2ba],0x0000
069D  C3				ret
069E				L$109:
069E  33 D2				xor		dx,dx
06A0  A1 BA 02				mov		ax,ds:[0x2ba]
06A3  C7 06 BC 02 0A 00			mov		word ptr ds:[0x2bc],0x000a
06A9  E8 BD FE				call		L$75
06AC				L$110:
06AC  58				pop		ax
06AD  88 87 BE 02			mov		0x2be[bx],al
06B1  43				inc		bx
06B2  83 FB 40				cmp		bx,0x0040
06B5  75 03				jne		L$111
06B7  E8 F8 01				call		L$165
06BA				L$111:
06BA  FE C9				dec		cl
06BC  75 EE				jne		L$110
06BE  B8 0D 0A				mov		ax,0x0a0d
06C1  89 87 BE 02			mov		0x2be[bx],ax
06C5  43				inc		bx
06C6  43				inc		bx
06C7  E8 E8 01				call		L$165
06CA  C3				ret
06CB				L$112:
06CB  56				push		si
06CC  53				push		bx
06CD  33 F6				xor		si,si
06CF  33 C9				xor		cx,cx
06D1				L$113:
06D1  80 FE FF				cmp		dh,0xff
06D4  75 08				jne		L$114
06D6  8B BC A6 02			mov		di,0x2a6[si]
06DA  8B DF				mov		bx,di
06DC  EB 25				jmp		L$117
06DE				L$114:
06DE  F6 C6 02				test		dh,0x02
06E1  74 08				je		L$115
06E3  C4 BC 8A 02			les		di,0x28a[si]
06E7  8C C3				mov		bx,es
06E9  EB 18				jmp		L$117
06EB				L$115:
06EB  3D 13 00				cmp		ax,0x0013
06EE  72 0D				jb		L$116
06F0  3D 27 00				cmp		ax,0x0027
06F3  77 08				ja		L$116
06F5  C4 BC 96 02			les		di,0x296[si]
06F9  8C C3				mov		bx,es
06FB  EB 06				jmp		L$117
06FD				L$116:
06FD  C4 BC 7A 02			les		di,0x27a[si]
0701  8C C3				mov		bx,es
0703				L$117:
0703  83 FB FF				cmp		bx,0xffff
0706  75 16				jne		L$120
0708  80 FE FF				cmp		dh,0xff
070B  75 03				jne		L$118
070D  F9				stc
070E  EB 0C				jmp		L$119
0710				L$118:
0710  A3 BA 02				mov		ds:[0x2ba],ax
0713  B8 FF FF				mov		ax,0xffff
0716  BD 01 00				mov		bp,0x0001
0719  33 F6				xor		si,si
071B  F8				clc
071C				L$119:
071C  EB 0C				jmp		L$122
071E				L$120:
071E  83 FB 00				cmp		bx,0x0000
0721  74 03				je		L$121
0723  E8 54 00				call		L$132
0726				L$121:
0726  83 C6 04				add		si,0x0004
0729  F8				clc
072A				L$122:
072A  72 06				jb		L$123
072C  0B C9				or		cx,cx
072E  75 02				jne		L$123
0730  EB 9F				jmp		L$113
0732				L$123:
0732  9C				pushf
0733  80 FE 01				cmp		dh,0x01
0736  75 29				jne		L$128
0738  52				push		dx
0739  55				push		bp
073A  51				push		cx
073B  06				push		es
073C  57				push		di
073D  50				push		ax
073E  B8 00 05				mov		ax,0x0500
0741  CD 2F				int		0x2f
0743  3C FF				cmp		al,0xff
0745  58				pop		ax
0746  75 09				jne		L$124
0748  8B D8				mov		bx,ax
074A  B8 02 05				mov		ax,0x0502
074D  CD 2F				int		0x2f
074F  EB 01				jmp		L$125
0751				L$124:
0751  F9				stc
0752				L$125:
0752  73 05				jae		L$126
0754  5F				pop		di
0755  07				pop		es
0756  59				pop		cx
0757  EB 06				jmp		L$127
0759				L$126:
0759  83 C4 06				add		sp,0x0006
075C  E8 0C 00				call		L$131
075F				L$127:
075F  5D				pop		bp
0760  5A				pop		dx
0761				L$128:
0761  EB 01				jmp		L$130
0763				L$129:
0763  CF				iret
0764				L$130:
0764  0E				push		cs
0765  E8 FB FF				call		L$129
0768  5B				pop		bx
0769  5E				pop		si
076A  C3				ret
076B				L$131:
076B  57				push		di
076C  50				push		ax
076D  B9 FF FF				mov		cx,0xffff
0770  32 C0				xor		al,al
0772  F2 AE				repne scasb
0774  F7 D1				not		cx
0776  49				dec		cx
0777  58				pop		ax
0778  5F				pop		di
0779  C3				ret
077A				L$132:
077A  83 FB 01				cmp		bx,0x0001
077D  75 1D				jne		L$135
077F  83 3E A2 02 FF			cmp		word ptr ds:[0x2a2],0xffff
0784  74 16				je		L$135
0786  3D FF FF				cmp		ax,0xffff
0789  75 0B				jne		L$133
078B  50				push		ax
078C  A1 BA 02				mov		ax,ds:[0x2ba]
078F  FF 1E A2 02			call		dword ptr ds:[0x2a2]
0793  58				pop		ax
0794  EB 04				jmp		L$134
0796				L$133:
0796  FF 1E A2 02			call		dword ptr ds:[0x2a2]
079A				L$134:
079A  EB 1A				jmp		L$138
079C				L$135:
079C  33 C9				xor		cx,cx
079E  80 FE FF				cmp		dh,0xff
07A1  74 06				je		L$136
07A3  26 8A 4D 03			mov		cl,es:0x3[di]
07A7  EB 09				jmp		L$137
07A9				L$136:
07A9  2E 38 35				cmp		cs:[di],dh
07AC  75 04				jne		L$137
07AE  2E 8A 4D 03			mov		cl,cs:0x3[di]
07B2				L$137:
07B2  83 C7 04				add		di,0x0004
07B5  F9				stc
07B6				L$138:
07B6  73 2D				jae		L$146
07B8  F8				clc
07B9				L$139:
07B9  0B C9				or		cx,cx
07BB  74 19				je		L$143
07BD  80 FE FF				cmp		dh,0xff
07C0  74 05				je		L$140
07C2  26 3B 05				cmp		ax,es:[di]
07C5  EB 03				jmp		L$141
07C7				L$140:
07C7  2E 3B 05				cmp		ax,cs:[di]
07CA				L$141:
07CA  75 02				jne		L$142
07CC  EB 09				jmp		L$144
07CE				L$142:
07CE  49				dec		cx
07CF  74 05				je		L$143
07D1  83 C7 04				add		di,0x0004
07D4  EB E3				jmp		L$139
07D6				L$143:
07D6  F9				stc
07D7				L$144:
07D7  72 0C				jb		L$146
07D9  80 FE FF				cmp		dh,0xff
07DC  F8				clc
07DD  75 02				jne		L$145
07DF  0E				push		cs
07E0  07				pop		es
07E1				L$145:
07E1  26 03 7D 02			add		di,es:0x2[di]
07E5				L$146:
07E5  72 06				jb		L$147
07E7  32 ED				xor		ch,ch
07E9  26 8A 0D				mov		cl,es:[di]
07EC  47				inc		di
07ED				L$147:
07ED  C6 06 B4 02 00			mov		byte ptr ds:[0x2b4],0x00
07F2  C3				ret
07F3				L$148:
07F3  33 DB				xor		bx,bx
07F5  80 7C 06 00			cmp		byte ptr 0x6[si],0x00
07F9  75 11				jne		L$149
07FB  C7 87 BE 02 20 2D			mov		word ptr 0x2be[bx],0x2d20
0801  43				inc		bx
0802  43				inc		bx
0803  C6 87 BE 02 20			mov		byte ptr 0x2be[bx],0x20
0808  43				inc		bx
0809  E8 A6 00				call		L$165
080C				L$149:
080C  5D				pop		bp
080D  33 DB				xor		bx,bx
080F  33 D2				xor		dx,dx
0811  88 0E B4 02			mov		ds:[0x2b4],cl
0815  8A 44 09				mov		al,0x9[si]
0818  3A C1				cmp		al,cl
081A  76 1E				jbe		L$152
081C  2A C1				sub		al,cl
081E  8A F0				mov		dh,al
0820  F6 44 07 80			test		byte ptr 0x7[si],0x80
0824  74 14				je		L$152
0826				L$150:
0826  8A 44 0A				mov		al,0xa[si]
0829  88 87 BE 02			mov		0x2be[bx],al
082D  43				inc		bx
082E  83 FB 40				cmp		bx,0x0040
0831  75 03				jne		L$151
0833  E8 7C 00				call		L$165
0836				L$151:
0836  FE CE				dec		dh
0838  75 EC				jne		L$150
083A				L$152:
083A  80 7C 08 00			cmp		byte ptr 0x8[si],0x00
083E  74 0D				je		L$153
0840  38 4C 08				cmp		0x8[si],cl
0843  73 08				jae		L$153
0845  2A 4C 08				sub		cl,0x8[si]
0848  8A D1				mov		dl,cl
084A  8A 4C 08				mov		cl,0x8[si]
084D				L$153:
084D  0B C9				or		cx,cx
084F  74 24				je		L$158
0851				L$154:
0851  F6 44 07 0F			test		byte ptr 0x7[si],0x0f
0855  75 0C				jne		L$155
0857  F6 44 07 10			test		byte ptr 0x7[si],0x10
085B  74 06				je		L$155
085D  26 8A 05				mov		al,es:[di]
0860  47				inc		di
0861  EB 01				jmp		L$156
0863				L$155:
0863  58				pop		ax
0864				L$156:
0864  88 87 BE 02			mov		0x2be[bx],al
0868  43				inc		bx
0869  83 FB 40				cmp		bx,0x0040
086C  75 03				jne		L$157
086E  E8 41 00				call		L$165
0871				L$157:
0871  FE C9				dec		cl
0873  75 DC				jne		L$154
0875				L$158:
0875  F6 44 07 80			test		byte ptr 0x7[si],0x80
0879  75 18				jne		L$161
087B  0A F6				or		dh,dh
087D  74 14				je		L$161
087F				L$159:
087F  8A 44 0A				mov		al,0xa[si]
0882  88 87 BE 02			mov		0x2be[bx],al
0886  43				inc		bx
0887  83 FB 40				cmp		bx,0x0040
088A  75 03				jne		L$160
088C  E8 23 00				call		L$165
088F				L$160:
088F  FE CE				dec		dh
0891  75 EC				jne		L$159
0893				L$161:
0893  F6 44 07 0F			test		byte ptr 0x7[si],0x0f
0897  75 08				jne		L$162
0899  F6 44 07 10			test		byte ptr 0x7[si],0x10
089D  74 02				je		L$162
089F  EB 0C				jmp		L$164
08A1				L$162:
08A1  0A D2				or		dl,dl
08A3  74 08				je		L$164
08A5				L$163:
08A5  8F 06 B8 02			pop		word ptr ds:[0x2b8]
08A9  FE CA				dec		dl
08AB  75 F8				jne		L$163
08AD				L$164:
08AD  E8 02 00				call		L$165
08B0  55				push		bp
08B1  C3				ret
08B2				L$165:
08B2  51				push		cx
08B3  06				push		es
08B4  57				push		di
08B5  1E				push		ds
08B6  07				pop		es
08B7  8B CB				mov		cx,bx
08B9  33 DB				xor		bx,bx
08BB  8D 3E BE 02			lea		di,L$19
08BF  E8 C5 FB				call		L$52
08C2  72 05				jb		L$166
08C4  5F				pop		di
08C5  07				pop		es
08C6  59				pop		cx
08C7  EB 04				jmp		L$167
08C9				L$166:
08C9  83 C4 06				add		sp,0x0006
08CC  F9				stc
08CD				L$167:
08CD  C3				ret
08CE				L$168:
08CE  01 04				add		[si],ax
08D0  00 01				add		[bx+di],al
08D2  FF				????
08D3  FF 04				inc		word ptr [si]
08D5  00 11				add		[bx+di],dl
08D7  45				inc		bp
08D8  78 74				js		L$176
08DA  65 6E				outs		dx,byte ptr gs:[si]
08DC  64 65 64 20 45 72			and
08E2  72 6F				jb		L$177
08E4  72 20				jb		L$171
08E6  25 31                                           %1
08E8				L$169:
08E8  0E				push		cs
08E9  07				pop		es
08EA  8D 3E CE 08			lea		di,L$168
08EE  83 C1 20				add		cx,0x0020
08F1  C3				ret
08F2				L$170:
08F2  02 04				add		al,[si]
08F4  00 01				add		[bx+di],al
08F6  FF				????
08F7  FF 04				inc		word ptr [si]
08F9  00 0E 50 61			add		ds:[0x6150],cl
	     0x08fe		; The label referred to here is an undefined location
08FD  72 73				jb		0x00000972
08FF  65 20 45 72			and		gs:0x72[di],al
	     0x0904		; The label referred to here is an undefined location
0903  72 6F				jb		0x00000974
0905  72                                              r
0906				L$171:
0906  20 25                                           DW		     0x0906
				; The label referred to here is an undefined location
L$174
0908  31                                              1
0909				L$172:
0909  0E				push		cs
090A  07				pop		es
090B  8D 3E F2 08			lea		di,L$170
090F  83 C1 1D				add		cx,0x001d
0912  C3				ret
0913				L$173:
0913  FF 04				inc		word ptr [si]
0915  00 02				add		[bp+si],al
0917  01 00				add		[bx+si],ax
0919  08 00				or		[bx+si],al
091B  02 00				add		al,[bx+si]
091D  1C 00				sbb		al,0x00
091F  17				pop		ss
0920  49				dec		cx
0921  6E				outsb
0922  63 6F 72				arpl		0x72[bx],bp
	     0x0926		; The label referred to here is an undefined location
0925  72 65				jb		0x0000098c
0927				L$174:
0927  63 74 20				arpl		0x20[si],si
092A  44				inc		sp
092B  4F				dec		di
092C  53				push		bx
092D  20 76 65				and		0x65[bp],dh
	     0x0931		; The label referred to here is an undefined location
0930  72 73				jb		0x000009a5
0932  69 6F 6E 0D 0A			imul		bp,0x6e[bx],0x0a0d
0937  0A 2D				or		ch,[di]
0939  2D 20 4D				sub		ax,0x4d20
093C  6F				outsw
	     0x093e		; The label referred to here is an undefined location
093D  72 65				jb		0x000009a4
093F  20 2D				and		[di],ch
0941  2D                                              -
0942				L$175:
0942  0E				push		cs
0943  07				pop		es
0944  8D 3E 13 09			lea		di,L$173
0948  83 C1 35				add		cx,0x0035
094B  C3				ret
094C  0D 0A                                           ..
094E				L$176:
094E  02 00				add		al,[bx+si]
0950  0D 0A 0D				or		ax,0x0d0a
0953				L$177:
0953  0A 04				or		al,[si]
0955  00   				add		bh,bh

Routine Size: 2391 bytes,    Routine Base: TEXT + 0000

No disassembly errors

