Module: target.asm

Segment: TEXT BYTE USE16 00004395 bytes
0000  00 00				add		[bx+si],al
0002  00 00				add		[bx+si],al
0004  00 00				add		[bx+si],al
0006  00 00				add		[bx+si],al
0008  00 00				add		[bx+si],al
000A				L$1:
000A  00 00				add		[bx+si],al
000C  00 00				add		[bx+si],al
000E  00 00				add		[bx+si],al
0010				L$2:
0010  55				push		bp
0011  8B EC				mov		bp,sp
0013  B8 EC 00				mov		ax,0x00ec
0016  E8 3D 25				call		L$592
0019  56				push		si
001A  C7 86 16 FF 00 00			mov		word ptr -0xea[bp],0x0000
0020  C7 46 F8 00 00			mov		word ptr -0x8[bp],0x0000
0025  C7 46 FE FF FF			mov		word ptr -0x2[bp],0xffff
002A  C7 46 FA 00 00			mov		word ptr -0x6[bp],0x0000
002F  C7 46 F6 00 00			mov		word ptr -0xa[bp],0x0000
0034  E8 9B 05				call		L$70
0037  C7 46 F2 01 00			mov		word ptr -0xe[bp],0x0001
003C  EB 25				jmp		L$5
003E				L$3:
003E  8B 5E                                           .^
0040				L$4:
0040  F2 D1 E3				repne shl	bx,0x01
0043  8B 76 06				mov		si,0x6[bp]
0046  FF 30				push		word ptr [bx+si]
0048  B8 96 01				mov		ax,0x0196
004B  50				push		ax
004C  E8 D7 38				call		L$908
004F  83 C4 04				add		sp,0x0004
0052  B8 42 00				mov		ax,0x0042
0055  50				push		ax
0056  B8 96 01				mov		ax,0x0196
0059  50				push		ax
005A  E8 C9 38				call		L$908
005D  83 C4 04				add		sp,0x0004
0060  FF 46 F2				inc		word ptr -0xe[bp]
0063				L$5:
0063  8B 46 04				mov		ax,0x4[bp]
0066  39 46 F2				cmp		-0xe[bp],ax
0069  7E D3				jle		L$3
006B  B8 96 01				mov		ax,0x0196
006E  50				push		ax
006F  E8 29 07				call		L$90
0072  83 C4 02				add		sp,0x0002
0075  E9 7F 01				jmp		L$29
0078				L$6:
0078  C7 46 F2 00 00			mov		word ptr -0xe[bp],0x0000
007D  B8 C0 07				mov		ax,0x07c0
0080  50				push		ax
0081  B8 6C 0C				mov		ax,0x0c6c
0084  50				push		ax
0085  E8 55 20				call		L$539
0088  83 C4 04				add		sp,0x0004
008B  83 3E C0 07 00			cmp		word ptr ds:[0x7c0],0x0000
0090  74 03				je		L$7
0092  E9 ED 00				jmp		L$23
0095				L$7:
0095  B8 08 0C				mov		ax,0x0c08
0098  39 06 C6 07			cmp		ds:[0x7c6],ax
009C  75 39				jne		L$11
009E  A0 0C 0C				mov		al,ds:[0xc0c]
00A1  A2 4C 01				mov		ds:[0x14c],al
00A4  80 06 4C 01 40			add		byte ptr ds:[0x14c],0x40
00A9  C6 06 4D 01 3A			mov		byte ptr ds:[0x14d],0x3a
00AE  C7 46 FA FF FF			mov		word ptr -0x6[bp],0xffff
00B3  EB 04				jmp		L$9
00B5				L$8:
00B5  FF 06 74 0C			inc		word ptr ds:[0xc74]
00B9				L$9:
00B9  A1 C8 07				mov		ax,ds:[0x7c8]
00BC  39 06 74 0C			cmp		ds:[0xc74],ax
00C0  72 03				jb		L$10
00C2  E9 26 01				jmp		L$28
00C5				L$10:
00C5  8B 5E F2				mov		bx,-0xe[bp]
00C8  8B 36 74 0C			mov		si,ds:[0xc74]
00CC  8A 04				mov		al,[si]
00CE  88 87 4C 00			mov		0x4c[bx],al
00D2  FF 46 F2				inc		word ptr -0xe[bp]
00D5  EB DE				jmp		L$8
00D7				L$11:
00D7  B8 10 0C				mov		ax,0x0c10
00DA  39 06 C6 07			cmp		ds:[0x7c6],ax
00DE  75 68				jne		L$18
00E0  A1 14 0C				mov		ax,ds:[0xc14]
00E3  8B 16 16 0C			mov		dx,ds:[0xc16]
00E7  89 46 94				mov		-0x6c[bp],ax
00EA  89 56 96				mov		-0x6a[bp],dx
00ED  EB 11				jmp		L$13
00EF				L$12:
00EF  8B 5E F8				mov		bx,-0x8[bp]
00F2  8A 86 14 FF			mov		al,-0xec[bp]
00F6  88 87 50 01			mov		0x150[bx],al
00FA  FF 46 F8				inc		word ptr -0x8[bp]
00FD  FF 46 94				inc		word ptr -0x6c[bp]
0100				L$13:
0100  C4 5E 94				les		bx,-0x6c[bp]
0103  26 8A 07				mov		al,es:[bx]
0106  88 86 14 FF			mov		-0xec[bp],al
010A  0A C0				or		al,al
010C  75 E1				jne		L$12
010E  2B C0				sub		ax,ax
0110  50				push		ax
0111  B8 7A 0C				mov		ax,0x0c7a
0114  50				push		ax
0115  E8 4E 38				call		L$910
0118  83 C4 04				add		sp,0x0004
011B  C7 46 F6 FF FF			mov		word ptr -0xa[bp],0xffff
0120  EB 04				jmp		L$15
0122				L$14:
0122  FF 06 74 0C			inc		word ptr ds:[0xc74]
0126				L$15:
0126  A1 C8 07				mov		ax,ds:[0x7c8]
0129  39 06 74 0C			cmp		ds:[0xc74],ax
012D  72 03				jb		L$16
012F  E9 B9 00				jmp		L$28
0132				L$16:
0132  8B 5E F2				mov		bx,-0xe[bp]
0135  8B 36 74 0C			mov		si,ds:[0xc74]
0139  8A 04				mov		al,[si]
013B  88 87 8C 00			mov		0x8c[bx],al
013F  FF 46 F2				inc		word ptr -0xe[bp]
0142  EB DE				jmp		L$14
0144				L$17:
0144  FF 06 74 0C			inc		word ptr ds:[0xc74]
0148				L$18:
0148  A1 C8 07				mov		ax,ds:[0x7c8]
014B  39 06 74 0C			cmp		ds:[0xc74],ax
014F  73 12				jae		L$19
0151  8B 5E F2				mov		bx,-0xe[bp]
0154  8B 36 74 0C			mov		si,ds:[0xc74]
0158  8A 04				mov		al,[si]
015A  88 87 0C 01			mov		0x10c[bx],al
015E  FF 46 F2				inc		word ptr -0xe[bp]
0161  EB E1				jmp		L$17
0163				L$19:
0163  83 BE 16 FF 00			cmp		word ptr -0xea[bp],0x0000
0168  75 08				jne		L$20
016A  C7 86 16 FF FF FF			mov		word ptr -0xea[bp],0xffff
0170  EB 79				jmp		L$28
0172				L$20:
0172  B8 0C 01				mov		ax,0x010c
0175				L$21:
0175  50				push		ax
0176  B8 06 00				mov		ax,0x0006
0179				L$22:
0179  50				push		ax
017A  E8 FE 05				call		L$89
017D  83 C4 04				add		sp,0x0004
0180  EB 69				jmp		L$28
0182				L$23:
0182  83 3E C0 07 FF			cmp		word ptr ds:[0x7c0],0xffff
0187  74 5D				je		L$27
0189  EB 14				jmp		L$25
018B				L$24:
018B  8B 5E F2				mov		bx,-0xe[bp]
018E  8B 36 74 0C			mov		si,ds:[0xc74]
0192  8A 04				mov		al,[si]
0194  88 87 CC 00			mov		0xcc[bx],al
0198  FF 46 F2				inc		word ptr -0xe[bp]
019B  FF 06 74 0C			inc		word ptr ds:[0xc74]
019F				L$25:
019F  A1 C8 07				mov		ax,ds:[0x7c8]
01A2  39 06 74 0C			cmp		ds:[0xc74],ax
01A6  72 E3				jb		L$24
01A8  A1 C0 07				mov		ax,ds:[0x7c0]
01AB  2D 01 00				sub		ax,0x0001
01AE  3D 08 00				cmp		ax,0x0008
01B1  77 16				ja		L$26
01B3  03 C0				add		ax,ax
01B5  93				xchg		ax,bx
01B6  2E FF A7 D2 01			jmp		word ptr cs:0x1d2[bx]
01BB  B8 CC 00				mov		ax,0x00cc
01BE  50				push		ax
01BF  B8 02 00				mov		ax,0x0002
01C2  EB B5				jmp		L$22
01C4  B8 CC 00				mov		ax,0x00cc
01C7  EB AC				jmp		L$21
01C9				L$26:
01C9  B8 CC 00				mov		ax,0x00cc
01CC  50				push		ax
01CD  B8 04 00				mov		ax,0x0004
01D0  EB A7				jmp		L$22
01D2  BB 01 C9				mov		bx,0xc901
01D5  01 C4				add		sp,ax
01D7  01 C9				add		cx,cx
01D9  01 C9				add		cx,cx
01DB  01 C9				add		cx,cx
01DD  01 C9				add		cx,cx
01DF  01 C9				add		cx,cx
01E1  01 C9				add		cx,cx
01E3  01 EB				add		bx,bp
01E5  05                                              .
01E6				L$27:
01E6  C7 46 FE 00 00			mov		word ptr -0x2[bp],0x0000
01EB				L$28:
01EB  A1 C4 07				mov		ax,0x07c4
01EE  A3 70 0C				mov		ds:[0xc70],ax
01F1  A1 C8 07				mov		ax,ds:[0x7c8]
01F4  A3 74 0C				mov		ds:[0xc74],ax
01F7				L$29:
01F7  83 7E FE 00			cmp		word ptr -0x2[bp],0x0000
01FB  74 03				je		L$30
01FD  E9 78 FE				jmp		L$6
0200				L$30:
0200  83 7E FA 00			cmp		word ptr -0x6[bp],0x0000
0204  74 1B				je		L$31
0206  83 7E F6 00			cmp		word ptr -0xa[bp],0x0000
020A  75 15				jne		L$31
020C  83 BE 16 FF 00			cmp		word ptr -0xea[bp],0x0000
0211  75 0E				jne		L$31
0213  B8 4C 00				mov		ax,0x004c
0216  50				push		ax
0217  B8 04 00				mov		ax,0x0004
021A  50				push		ax
021B  E8 5D 05				call		L$89
021E  83 C4 04				add		sp,0x0004
0221				L$31:
0221  83 7E F6 00			cmp		word ptr -0xa[bp],0x0000
0225  74 14				je		L$32
0227  83 7E FA 00			cmp		word ptr -0x6[bp],0x0000
022B  75 0E				jne		L$32
022D  B8 8C 00				mov		ax,0x008c
0230  50				push		ax
0231  B8 04 00				mov		ax,0x0004
0234  50				push		ax
0235  E8 43 05				call		L$89
0238  83 C4 04				add		sp,0x0004
023B				L$32:
023B  83 BE 16 FF 00			cmp		word ptr -0xea[bp],0x0000
0240  74 14				je		L$33
0242  83 7E FA 00			cmp		word ptr -0x6[bp],0x0000
0246  75 0E				jne		L$33
0248  B8 0C 01				mov		ax,0x010c
024B  50				push		ax
024C  B8 04 00				mov		ax,0x0004
024F  50				push		ax
0250  E8 28 05				call		L$89
0253  83 C4 04				add		sp,0x0004
0256				L$33:
0256  83 7E FA 00			cmp		word ptr -0x6[bp],0x0000
025A  74 1B				je		L$34
025C  83 7E F6 00			cmp		word ptr -0xa[bp],0x0000
0260  74 15				je		L$34
0262  83 BE 16 FF 00			cmp		word ptr -0xea[bp],0x0000
0267  74 0E				je		L$34
0269  B8 0C 01				mov		ax,0x010c
026C  50				push		ax
026D  B8 02 00				mov		ax,0x0002
0270  50				push		ax
0271  E8 07 05				call		L$89
0274  83 C4 04				add		sp,0x0004
0277				L$34:
0277  B8 18 0C				mov		ax,0x0c18
027A  50				push		ax
027B  E8 F4 09				call		L$138
027E  83 C4 02				add		sp,0x0002
0281  2B C0				sub		ax,ax
0283  50				push		ax
0284  B8 7A 0C				mov		ax,0x0c7a
0287  50				push		ax
0288  E8 DB 36				call		L$910
028B  83 C4 04				add		sp,0x0004
028E  83 7E 04 01			cmp		word ptr 0x4[bp],0x0001
0292  75 06				jne		L$35
0294  E8 F7 02				call		L$66
0297  E9 E6 02				jmp		L$65
029A				L$35:
029A  A0 4C 01				mov		al,ds:[0x14c]
029D  98				cbw
029E  2D 41 00				sub		ax,0x0041
02A1  89 46 F0				mov		-0x10[bp],ax
02A4  8D 46 98				lea		ax,-0x68[bp]
02A7  50				push		ax
02A8  FF 76 F0				push		word ptr -0x10[bp]
02AB  E8 6A 0A				call		L$142
02AE  83 C4 04				add		sp,0x0004
02B1  0A C0				or		al,al
02B3  75 0E				jne		L$36
02B5  B8 4C 00				mov		ax,0x004c
02B8  50				push		ax
02B9  B8 04 00				mov		ax,0x0004
02BC  50				push		ax
02BD  E8 BB 04				call		L$89
02C0  83 C4 04				add		sp,0x0004
02C3				L$36:
02C3  2B C0				sub		ax,ax
02C5  50				push		ax
02C6  B8 7A 0C				mov		ax,0x0c7a
02C9  50				push		ax
02CA  E8 99 36				call		L$910
02CD  83 C4 04				add		sp,0x0004
02D0  83 BE 16 FF FF			cmp		word ptr -0xea[bp],0xffff
02D5  74 03				je		L$37
02D7  E9 A1 00				jmp		L$44
02DA				L$37:
02DA  F7 46 DB 00 20			test		word ptr -0x25[bp],0x2000
02DF  75 0E				jne		L$38
02E1  B8 0C 01				mov		ax,0x010c
02E4  50				push		ax
02E5  B8 04 00				mov		ax,0x0004
02E8  50				push		ax
02E9  E8 8F 04				call		L$89
02EC  83 C4 04				add		sp,0x0004
02EF				L$38:
02EF  8D 46 98				lea		ax,-0x68[bp]
02F2  50				push		ax
02F3  E8                                              .
02F4  58 05                                           DW		     0x02f4
				; The label referred to here is an undefined location
L$91
02F5				L$39:
02F5  05 83 C4				add		ax,0xc483
02F8  02 0B				add		cl,[bp+di]
02FA  C0				????
02FB  74 0E				je		L$41
02FD  B8                                              .
02FE				L$40:
02FE  4C				dec		sp
02FF  00 50 B8				add		-0x48[bx+si],dl
0302  04 00				add		al,0x00
0304  50				push		ax
0305  E8 73 04				call		L$89
0308  83 C4 04				add		sp,0x0004
030B				L$41:
030B  8A 46 F0				mov		al,-0x10[bp]
030E  04 41				add		al,0x41
0310  88 46 98				mov		-0x68[bp],al
0313  C6 46 99 3A			mov		byte ptr -0x67[bp],0x3a
0317  C6 46 9A 5C			mov		byte ptr -0x66[bp],0x5c
031B  C6 46 9B 00			mov		byte ptr -0x65[bp],0x00
031F  C7 46 E7 02 00			mov		word ptr -0x19[bp],0x0002
0324  A0 38 0C				mov		al,ds:[0xc38]
0327  98				cbw
0328  39 46 F0				cmp		-0x10[bp],ax
032B  7C 07				jl		L$42
032D  C7 46 DB 00 00			mov		word ptr -0x25[bp],0x0000
0332  EB 05				jmp		L$43
0334				L$42:
0334  C7 46 DB 00 40			mov		word ptr -0x25[bp],0x4000
0339				L$43:
0339  B8 18 0C				mov		ax,0x0c18
033C  50				push		ax
033D  E8 32 09				call		L$138
0340  83 C4 02				add		sp,0x0002
0343  2B C0				sub		ax,ax
0345  50				push		ax
0346  B8 7A 0C				mov		ax,0x0c7a
0349  50				push		ax
034A  E8 19 36				call		L$910
034D  83 C4 04				add		sp,0x0004
0350  FE 0E 4C 0C			dec		byte ptr ds:[0xc4c]
0354  B8 18 0C				mov		ax,0x0c18
0357  50				push		ax
0358  E8 6A 09				call		L$140
035B  83 C4 02				add		sp,0x0002
035E  2B C0				sub		ax,ax
0360  50				push		ax
0361  B8 7A 0C				mov		ax,0x0c7a
0364  50				push		ax
0365  E8 FE 35				call		L$910
0368  83 C4 04				add		sp,0x0004
036B  8D 46 98				lea		ax,-0x68[bp]
036E  50				push		ax
036F  FF 76 F0				push		word ptr -0x10[bp]
0372  E8 F9 09				call		L$146
0375  83 C4 04				add		sp,0x0004
0378  E9 F8 01				jmp		L$64
037B				L$44:
037B  F7 46 DB 00 20			test		word ptr -0x25[bp],0x2000
0380  74 0E				je		L$45
0382  B8 4C 00				mov		ax,0x004c
0385  50				push		ax
0386  B8 04 00				mov		ax,0x0004
0389  50				push		ax
038A  E8 EE 03				call		L$89
038D  83 C4 04				add		sp,0x0004
0390				L$45:
0390  8D 86 44 FF			lea		ax,-0xbc[bp]
0394  50				push		ax
0395  B8 50 01				mov		ax,0x0150
0398  50				push		ax
0399  E8 BE 06				call		L$114
039C  83 C4 04				add		sp,0x0004
039F  E8 3B 08				call		L$133
03A2  3B 46 F0				cmp		ax,-0x10[bp]
03A5  74 1A				je		L$47
03A7  FF 76 F0				push		word ptr -0x10[bp]
03AA  E8 17 0A				call		L$150
03AD  83 C4 02				add		sp,0x0002
03B0  0B C0				or		ax,ax
03B2  74 0D				je		L$47
03B4  FF                                              .
03B5				L$46:
03B5  76 F0				jbe		0x000003a7
03B7  E8 BB 0A				call		L$157
03BA  83 C4 02				add		sp,0x0002
03BD  0B C0				or		ax,ax
03BF  74 32				je		L$50
03C1				L$47:
03C1  FF 76 F0				push		word ptr -0x10[bp]
03C4  E8 64 0A				call		L$154
03C7  83 C4 02				add		sp,0x0002
03CA  0B C0				or		ax,ax
03CC  75 0D				jne		L$48
03CE  FF 76 F0				push		word ptr -0x10[bp]
03D1  E8 A1 0A				call		L$157
03D4  83 C4 02				add		sp,0x0002
03D7  0B C0				or		ax,ax
03D9  74 0A				je		L$49
03DB				L$48:
03DB  B8 05 00				mov		ax,0x0005
03DE  50				push		ax
03DF  E8 99 03				call		L$89
03E2  83 C4 02				add		sp,0x0002
03E5				L$49:
03E5  B8 4C 00				mov		ax,0x004c
03E8  50				push		ax
03E9  B8 04 00				mov		ax,0x0004
03EC  50				push		ax
03ED  E8 8B 03				call		L$89
03F0  83 C4 04				add		sp,0x0004
03F3				L$50:
03F3  2B C0				sub		ax,ax
03F5  50				push		ax
03F6  B8 7A 0C				mov		ax,0x0c7a
03F9  50				push		ax
03FA  E8 69 35				call		L$910
03FD  83 C4 04				add		sp,0x0004
0400  8D 86 44 FF			lea		ax,-0xbc[bp]
0404  50				push		ax
0405  E8 46 04				call		L$91
0408  83 C4 02				add		sp,0x0002
040B  0B C0				or		ax,ax
040D  75 16				jne		L$51
040F  B8 44 00				mov		ax,0x0044
0412  50				push		ax
0413  8D 86 47 FF			lea		ax,-0xb9[bp]
0417  50				push		ax
0418  E8 CD 05				call		L$108
041B  83 C4 04				add		sp,0x0004
041E  8B D8				mov		bx,ax
0420  80 3F 00				cmp		byte ptr [bx],0x00
0423  74 0E				je		L$52
0425				L$51:
0425  B8 8C 00				mov		ax,0x008c
0428  50				push		ax
0429  B8 04 00				mov		ax,0x0004
042C  50				push		ax
042D  E8 4B 03				call		L$89
0430  83 C4 04				add		sp,0x0004
0433				L$52:
0433  2B C0				sub		ax,ax
0435  50				push		ax
0436				L$53:
0436  B8 7A 0C				mov		ax,0x0c7a
0439  50				push		ax
043A  E8 29 35				call		L$910
043D  83 C4 04				add		sp,0x0004
0440  8A 86 44 FF			mov		al,-0xbc[bp]
0444  98				cbw
0445  2D 41 00				sub		ax,0x0041
0448  50				push		ax
0449  E8 DF 09				call		L$154
044C  83 C4 02				add		sp,0x0002
044F  0B C0				or		ax,ax
0451  75 13				jne		L$56
0453  8A 86 44 FF			mov		al,-0xbc[bp]
0457  98				cbw
0458  2D 41 00				sub		ax,0x0041
045B  50				push		ax
045C  E8 16 0A				call		L$157
045F  83                                              .
0460				L$54:
0460  C4 02				les		ax,[bp+si]
0462  0B C0				or		ax,ax
0464  74                                              t
0465				L$55:
0465  0A B8                                           DW		     0x0465
				; The label referred to here is an undefined location
L$58
0467				L$56:
0467  05 00 50				add		ax,0x5000
046A				L$57:
046A  E8 0E 03				call		L$89
046D  83 C4 02				add		sp,0x0002
0470				L$58:
0470  2B C0				sub		ax,ax
0472  50				push		ax
0473  B8 7A 0C				mov		ax,0x0c7a
0476  50				push		ax
0477  E8 EC 34				call		L$910
047A  83 C4 04				add		sp,0x0004
047D  8A 86 44 FF			mov		al,-0xbc[bp]
0481  98				cbw
0482  2D 41 00				sub		ax,0x0041
0485  89 46 F4				mov		-0xc[bp],ax
0488  39 46 F0				cmp		-0x10[bp],ax
048B  75 0E				jne		L$59
048D  B8 8C 00				mov		ax,0x008c
0490  50				push		ax
0491  B8 04 00				mov		ax,0x0004
0494  50				push		ax
0495  E8 E3 02				call		L$89
0498  83 C4 04				add		sp,0x0004
049B				L$59:
049B  8D 86 44 FF			lea		ax,-0xbc[bp]
049F  50				push		ax
04A0  E8 AB 36				call		L$934
04A3  83 C4 02				add		sp,0x0002
04A6  40				inc		ax
04A7  75 77				jne		L$63
04A9  8D 86 18 FF			lea		ax,-0xe8[bp]
04AD  50				push		ax
04AE  B8 10 00				mov		ax,0x0010
04B1  50				push		ax
04B2  8D 86 44 FF			lea		ax,-0xbc[bp]
04B6  50				push		ax
04B7  E8 9A 04				call		L$103
04BA  83 C4 06				add		sp,0x0006
04BD  40				inc		ax
04BE  74 07				je		L$60
04C0  F6 86 2D FF 10			test		byte ptr -0xd3[bp],0x10
04C5  75 0E				jne		L$61
04C7				L$60:
04C7  B8 8C 00				mov		ax,0x008c
04CA  50				push		ax
04CB  B8 04 00				mov		ax,0x0004
04CE  50				push		ax
04CF  E8 A9 02				call		L$89
04D2  83 C4 04				add		sp,0x0004
04D5				L$61:
04D5  8D 86 44 FF			lea		ax,-0xbc[bp]
04D9  50				push		ax
04DA  E8 E7 34				call		L$914
04DD  83 C4 02				add		sp,0x0002
04E0  8B F0				mov		si,ax
04E2  8D 82 44 FF			lea		ax,-0xbc[bp+si]
04E6  89 46 FC				mov		-0x4[bp],ax
04E9  B8 47 00				mov		ax,0x0047
04EC  50				push		ax
04ED  FF 76 FC				push		word ptr -0x4[bp]
04F0  E8 33 34				call		L$908
04F3  83 C4 04				add		sp,0x0004
04F6  8D 86 18 FF			lea		ax,-0xe8[bp]
04FA  50				push		ax
04FB  2B C0				sub		ax,ax
04FD  50				push		ax
04FE  8D 86 44 FF			lea		ax,-0xbc[bp]
0502  50				push		ax
0503  E8 4E 04				call		L$103
0506  83 C4 06				add		sp,0x0006
0509  40				inc		ax
050A  74 0E				je		L$62
050C  B8 8C 00				mov		ax,0x008c
050F  50				push		ax
0510  B8 03 00				mov		ax,0x0003
0513  50				push		ax
0514  E8 64 02				call		L$89
0517  83 C4 04				add		sp,0x0004
051A				L$62:
051A  8B 5E FC				mov		bx,-0x4[bp]
051D  C6 07 00				mov		byte ptr [bx],0x00
0520				L$63:
0520  8D 86 44 FF			lea		ax,-0xbc[bp]
0524  50				push		ax
0525  8D 46 98				lea		ax,-0x68[bp]
0528  50				push		ax
0529  E8 3A 34				call		L$910
052C  83 C4 04				add		sp,0x0004
052F  C7 46 DB 00 60			mov		word ptr -0x25[bp],0x6000
0534  8D 46 98				lea		ax,-0x68[bp]
0537  50				push		ax
0538  FF 76 F0				push		word ptr -0x10[bp]
053B  E8 30 08				call		L$146
053E  83 C4 04				add		sp,0x0004
0541  2B C0				sub		ax,ax
0543  50				push		ax
0544  B8 7A 0C				mov		ax,0x0c7a
0547  50				push		ax
0548  E8 1B 34				call		L$910
054B  83 C4 04				add		sp,0x0004
054E  B8 18 0C				mov		ax,0x0c18
0551  50				push		ax
0552  E8 1D 07				call		L$138
0555  83 C4 02				add		sp,0x0002
0558  2B C0				sub		ax,ax
055A  50				push		ax
055B  B8 7A 0C				mov		ax,0x0c7a
055E  50				push		ax
055F  E8 04 34				call		L$910
0562  83 C4 04				add		sp,0x0004
0565  FE 06 4C 0C			inc		byte ptr ds:[0xc4c]
0569  B8 18 0C				mov		ax,0x0c18
056C  50				push		ax
056D  E8 55 07				call		L$140
0570  83 C4 02				add		sp,0x0002
0573				L$64:
0573  2B C0				sub		ax,ax
0575  50				push		ax
0576  B8 7A 0C				mov		ax,0x0c7a
0579  50				push		ax
057A  E8 E9 33				call		L$910
057D  83 C4 04				add		sp,0x0004
0580				L$65:
0580  2B C0				sub		ax,ax
0582  50				push		ax
0583  E8 FE 1E				call		L$577
0586  83 C4 02				add		sp,0x0002
0589  5E				pop		si
058A  8B E5				mov		sp,bp
058C  5D				pop		bp
058D  C3				ret
058E				L$66:
058E  55				push		bp
058F  8B EC				mov		bp,sp
0591  B8 5A 00				mov		ax,0x005a
0594  E8 BF 1F				call		L$592
0597  C7 46 FE 00 00			mov		word ptr -0x2[bp],0x0000
059C  EB 1F				jmp		L$69
059E				L$67:
059E  F7 46 E9 00 20			test		word ptr -0x17[bp],0x2000
05A3  74 15				je		L$68
05A5  8D 46 A6				lea		ax,-0x5a[bp]
05A8  50				push		ax
05A9  8B 46 FE				mov		ax,-0x2[bp]
05AC  05 41 00				add		ax,0x0041
05AF  50				push		ax
05B0  B8 97 02				mov		ax,0x0297
05B3  50				push		ax
05B4  E8 EF 22				call		L$658
05B7  83 C4 06				add		sp,0x0006
05BA				L$68:
05BA  FF 46 FE				inc		word ptr -0x2[bp]
05BD				L$69:
05BD  8D 46 A6				lea		ax,-0x5a[bp]
05C0  50				push		ax
05C1  FF 76 FE				push		word ptr -0x2[bp]
05C4  E8 51 07				call		L$142
05C7  83 C4 04				add		sp,0x0004
05CA  0A C0				or		al,al
05CC  75 D0				jne		L$67
05CE  8B E5				mov		sp,bp
05D0  5D				pop		bp
05D1  C3				ret
05D2				L$70:
05D2  33 C0				xor		ax,ax
05D4  E8 7F 1F				call		L$592
05D7  B8 C0 07				mov		ax,0x07c0
05DA  50				push		ax
05DB  B8 6C 0C				mov		ax,0x0c6c
05DE  50				push		ax
05DF  E8 C8 12				call		L$375
05E2  83 C4 04				add		sp,0x0004
05E5  F6 06 CC 07 01			test		byte ptr ds:[0x7cc],0x01
05EA  74 15				je		L$71
05EC  B8 C0 07				mov		ax,0x07c0
05EF  50				push		ax
05F0  50				push		ax
05F1  E8 3E 13				call		L$384
05F4  83 C4 04				add		sp,0x0004
05F7  B8 01 00				mov		ax,0x0001
05FA  50				push		ax
05FB  E8 86 1E				call		L$577
05FE  83 C4 02				add		sp,0x0002
0601				L$71:
0601  C3				ret
0602				L$72:
0602  55				push		bp
0603  8B EC				mov		bp,sp
0605  B8 16 00				mov		ax,0x0016
0608  E8 4B 1F				call		L$592
060B  8B 46 04				mov		ax,0x4[bp]
060E  3D 01 00				cmp		ax,0x0001
0611  74 25				je		L$73
0613  3D 02 00				cmp		ax,0x0002
0616  74 4E				je		L$77
0618  3D 03 00				cmp		ax,0x0003
061B  74 5E				je		L$80
061D  3D 04 00				cmp		ax,0x0004
0620  74 69				je		L$82
0622  3D 05 00				cmp		ax,0x0005
0625  74 6F				je		L$83
0627  3D 06 00				cmp		ax,0x0006
062A  74 75				je		L$84
062C  B8 01 00				mov		ax,0x0001
062F  50				push		ax
0630  E8 51 1E				call		L$577
0633  83 C4 02				add		sp,0x0002
0636  EB 18				jmp		L$75
0638				L$73:
0638  C6 46 F0 00			mov		byte ptr -0x10[bp],0x00
063C  C7 46 FE 08 00			mov		word ptr -0x2[bp],0x0008
0641  C7 46 EC 01 00			mov		word ptr -0x14[bp],0x0001
0646  C7 46 EA 00 00			mov		word ptr -0x16[bp],0x0000
064B				L$74:
064B  C7 46 EE 02 00			mov		word ptr -0x12[bp],0x0002
0650				L$75:
0650  8B 46 04				mov		ax,0x4[bp]
0653  2D 01 00				sub		ax,0x0001
0656  3D 05 00				cmp		ax,0x0005
0659  76 03				jbe		L$76
065B  E9 CC 00				jmp		L$87
065E				L$76:
065E  03 C0				add		ax,ax
0660  93				xchg		ax,bx
0661  2E FF A7 36 07			jmp		word ptr cs:0x736[bx]
0666				L$77:
0666  C6 46 F0 00			mov		byte ptr -0x10[bp],0x00
066A  C7 46 FE 01 00			mov		word ptr -0x2[bp],0x0001
066F				L$78:
066F  C7 46 EC 02 00			mov		word ptr -0x14[bp],0x0002
0674				L$79:
0674  C7 46 EA 01 00			mov		word ptr -0x16[bp],0x0001
0679  EB D0				jmp		L$74
067B				L$80:
067B  C6 46 F0 00			mov		byte ptr -0x10[bp],0x00
067F  C7 46 FE 02 00			mov		word ptr -0x2[bp],0x0002
0684				L$81:
0684  C7 46 EC FF 00			mov		word ptr -0x14[bp],0x00ff
0689  EB E9				jmp		L$79
068B				L$82:
068B  C6 46 F0 00			mov		byte ptr -0x10[bp],0x00
068F  C7 46 FE 0A 00			mov		word ptr -0x2[bp],0x000a
0694  EB D9				jmp		L$78
0696				L$83:
0696  C6 46 F0 00			mov		byte ptr -0x10[bp],0x00
069A  C7 46 FE 0C 00			mov		word ptr -0x2[bp],0x000c
069F  EB E3				jmp		L$81
06A1				L$84:
06A1  C6 46 F0 00			mov		byte ptr -0x10[bp],0x00
06A5  C7 46 FE 03 00			mov		word ptr -0x2[bp],0x0003
06AA  EB C3				jmp		L$78
06AC  8B 46 FE				mov		ax,-0x2[bp]
06AF  A3 6C 0C				mov		ds:[0xc6c],ax
06B2  8B 46 EE				mov		ax,-0x12[bp]
06B5  A3 6E 0C				mov		ds:[0xc6e],ax
06B8				L$85:
06B8  8B 46 EA				mov		ax,-0x16[bp]
06BB  A3 70 0C				mov		ds:[0xc70],ax
06BE  8A 46 F0				mov		al,-0x10[bp]
06C1  A2 72 0C				mov		ds:[0xc72],al
06C4  8A 46 EC				mov		al,-0x14[bp]
06C7  A2 73 0C				mov		ds:[0xc73],al
06CA  B8 C0 07				mov		ax,0x07c0
06CD  50				push		ax
06CE  B8 6C 0C				mov		ax,0x0c6c
06D1  50				push		ax
06D2  E8 5D 12				call		L$384
06D5  83 C4 04				add		sp,0x0004
06D8  EB 68				jmp		L$88
06DA  8B 46 06				mov		ax,0x6[bp]
06DD  89 46 F4				mov		-0xc[bp],ax
06E0  8C 5E F6				mov		word ptr -0xa[bp],ds
06E3  C6 46 F2 0B			mov		byte ptr -0xe[bp],0x0b
06E7  C6 46 F3 00			mov		byte ptr -0xd[bp],0x00
06EB  C6 46 F8 00			mov		byte ptr -0x8[bp],0x00
06EF				L$86:
06EF  C6 46 F9 10			mov		byte ptr -0x7[bp],0x10
06F3  C6 46 FA 00			mov		byte ptr -0x6[bp],0x00
06F7  C6 46 FB 01			mov		byte ptr -0x5[bp],0x01
06FB  C6 46 FC 20			mov		byte ptr -0x4[bp],0x20
06FF  8B 46 FE				mov		ax,-0x2[bp]
0702  A3 6C 0C				mov		ds:[0xc6c],ax
0705  8B 46 EE				mov		ax,-0x12[bp]
0708  A3 6E 0C				mov		ds:[0xc6e],ax
070B  8D 46 F2				lea		ax,-0xe[bp]
070E  A3 74 0C				mov		ds:[0xc74],ax
0711  EB A5				jmp		L$85
0713  B8 90 01				mov		ax,0x0190
0716  89 46 F4				mov		-0xc[bp],ax
0719  8C 5E F6				mov		word ptr -0xa[bp],ds
071C  C6 46 F2 0B			mov		byte ptr -0xe[bp],0x0b
0720  C6 46 F3 00			mov		byte ptr -0xd[bp],0x00
0724  C6 46 F8 01			mov		byte ptr -0x8[bp],0x01
0728  EB C5				jmp		L$86
072A				L$87:
072A  B8 01 00				mov		ax,0x0001
072D  50				push		ax
072E  E8 53 1D				call		L$577
0731  83 C4 02				add		sp,0x0002
0734  EB 0C				jmp		L$88
0736  AC				lodsb
0737  06				push		es
0738  DA 06 DA 06			fiadd		dword ptr ds:[0x6da]
073C  DA 06 13 07			fiadd		dword ptr ds:[0x713]
0740  DA 06                                           ..
0742				L$88:
0742  F6 06 CC 07                                     DD	ds:[0x6f6]
0746  01 74 2E				add		0x2e[si],si
0749  C7 06 6E 0C 02 00			mov		word ptr ds:[0xc6e],0x0002
074F  C7 06 70 0C 00 00			mov		word ptr ds:[0xc70],0x0000
0755  C6 06 72 0C 00			mov		byte ptr ds:[0xc72],0x00
075A  C6 06 73 0C 01			mov		byte ptr ds:[0xc73],0x01
075F  B8 C0 07				mov		ax,0x07c0
0762  50				push		ax
0763  B8 6C 0C				mov		ax,0x0c6c
0766  50				push		ax
0767  E8 C8 11				call		L$384
076A  83 C4 04				add		sp,0x0004
076D  B8 01 00				mov		ax,0x0001
0770  50				push		ax
0771  E8 10 1D				call		L$577
0774  83 C4 02				add		sp,0x0002
0777  8B E5				mov		sp,bp
0779  5D				pop		bp
077A  C3				ret
077B				L$89:
077B  55				push		bp
077C  8B EC				mov		bp,sp
077E  33 C0				xor		ax,ax
0780  E8 D3 1D				call		L$592
0783  FF 76 06				push		word ptr 0x6[bp]
0786  FF 76 04				push		word ptr 0x4[bp]
0789  E8 76 FE				call		L$72
078C  83 C4 04				add		sp,0x0004
078F  B8 01 00				mov		ax,0x0001
0792  50				push		ax
0793  E8 EE 1C				call		L$577
0796  83 C4 02				add		sp,0x0002
0799  5D				pop		bp
079A  C3				ret
079B				L$90:
079B  55				push		bp
079C  8B EC				mov		bp,sp
079E  33 C0				xor		ax,ax
07A0  E8 B3 1D				call		L$592
07A3  C7 06 D8 07 CE 07			mov		word ptr ds:[0x7d8],0x07ce
07A9  C6 06 DA 07 00			mov		byte ptr ds:[0x7da],0x00
07AE  C6 06 CE 07 00			mov		byte ptr ds:[0x7ce],0x00
07B3  C6 06 CF 07 02			mov		byte ptr ds:[0x7cf],0x02
07B8  C7 06 D0 07 DE 09			mov		word ptr ds:[0x7d0],0x09de
07BE  C7 06 D2 07 E7 09			mov		word ptr ds:[0x7d2],0x09e7
07C4  C6 06 D4 07 01			mov		byte ptr ds:[0x7d4],0x01
07C9  C7 06 D5 07 F0 09			mov		word ptr ds:[0x7d5],0x09f0
07CF  C6 06 D7 07 00			mov		byte ptr ds:[0x7d7],0x00
07D4  C7 06 DE 09 01 01			mov		word ptr ds:[0x9de],0x0101
07DA  C7 06 E0 09 00 00			mov		word ptr ds:[0x9e0],0x0000
07E0  C7 06 E2 09 08 0C			mov		word ptr ds:[0x9e2],0x0c08
07E6  C7 06 E4 09 96 02			mov		word ptr ds:[0x9e4],0x0296
07EC  C6 06 E6 09 00			mov		byte ptr ds:[0x9e6],0x00
07F1  C7 06 E7 09 01 02			mov		word ptr ds:[0x9e7],0x0201
07F7  C7 06 E9 09 01 00			mov		word ptr ds:[0x9e9],0x0001
07FD  C7 06 EB 09 10 0C			mov		word ptr ds:[0x9eb],0x0c10
0803  C7 06 ED 09 96 02			mov		word ptr ds:[0x9ed],0x0296
0809  C6 06 EF 09 00			mov		byte ptr ds:[0x9ef],0x00
080E  C7 06 F0 09 00 00			mov		word ptr ds:[0x9f0],0x0000
0814  C7 06 F2 09 00 00			mov		word ptr ds:[0x9f2],0x0000
081A  C7 06 F4 09 64 0C			mov		word ptr ds:[0x9f4],0x0c64
0820  C7 06 F6 09 96 02			mov		word ptr ds:[0x9f6],0x0296
0826  C6 06 F8 09 01			mov		byte ptr ds:[0x9f8],0x01
082B  B8 A2 02				mov		ax,0x02a2
082E  50				push		ax
082F  B8 F9 09				mov		ax,0x09f9
0832  50				push		ax
0833  E8 30 31				call		L$910
0836  83 C4 04				add		sp,0x0004
0839  C7 06 70 0C 00 00			mov		word ptr ds:[0xc70],0x0000
083F  C7 06 76 0C D8 07			mov		word ptr ds:[0xc76],0x07d8
0845  8B 46 04				mov		ax,0x4[bp]
0848  A3 74 0C				mov		ds:[0xc74],ax
084B  5D				pop		bp
084C  C3				ret
084D  90				nop
084E				L$91:
084E  55				push		bp
084F  8B EC				mov		bp,sp
0851  B8 56 00				mov		ax,0x0056
0854  E8 FF 1C				call		L$592
0857  56				push		si
0858  8B 5E 04				mov		bx,0x4[bp]
085B  80 7F 01 3A			cmp		byte ptr 0x1[bx],0x3a
085F  75 0B				jne		L$92
0861  8A 07				mov		al,[bx]
0863  98				cbw
0864  2D 40 00				sub		ax,0x0040
0867  89 46 FC				mov		-0x4[bp],ax
086A  EB 05				jmp		L$93
086C				L$92:
086C  C7 46 FC 00 00			mov		word ptr -0x4[bp],0x0000
0871				L$93:
0871  FF 76 FC				push		word ptr -0x4[bp]
0874  8D 46 AC				lea		ax,-0x54[bp]
0877  50				push		ax
0878  E8 9E 01				call		L$111
087B  83 C4 04				add		sp,0x0004
087E  40				inc		ax
087F  75 05				jne		L$95
0881				L$94:
0881  B8 FF FF				mov		ax,0xffff
0884  EB 7F				jmp		L$101
0886				L$95:
0886  8D 46 AC				lea		ax,-0x54[bp]
0889  50				push		ax
088A  E8 37 31				call		L$914
088D  83 C4 02				add		sp,0x0002
0890  3D 03 00				cmp		ax,0x0003
0893  75 04				jne		L$97
0895				L$96:
0895  2B C0				sub		ax,ax
0897  EB 6C				jmp		L$101
0899				L$97:
0899  8D 46 AC				lea		ax,-0x54[bp]
089C  50				push		ax
089D  FF 76 04				push		word ptr 0x4[bp]
08A0  E8 67 00				call		L$102
08A3  83 C4 04				add		sp,0x0004
08A6  0B C0				or		ax,ax
08A8  74 EB				je		L$96
08AA  8B 46 04				mov		ax,0x4[bp]
08AD  89 46 FE				mov		-0x2[bp],ax
08B0  EB 29				jmp		L$100
08B2				L$98:
08B2  8A 46 AA				mov		al,-0x56[bp]
08B5  2A E4				sub		ah,ah
08B7  50				push		ax
08B8  E8 43 03				call		L$134
08BB  83 C4 02				add		sp,0x0002
08BE  0B C0				or		ax,ax
08C0  74 06				je		L$99
08C2  83 46 FE 02			add		word ptr -0x2[bp],0x0002
08C6  EB 13				jmp		L$100
08C8				L$99:
08C8  8B 5E FE				mov		bx,-0x2[bp]
08CB  FF 46 FE				inc		word ptr -0x2[bp]
08CE  80 3F 5C				cmp		byte ptr [bx],0x5c
08D1  75 08				jne		L$100
08D3  8B 5E FE				mov		bx,-0x2[bp]
08D6  80 3F 00				cmp		byte ptr [bx],0x00
08D9  74 A6				je		L$94
08DB				L$100:
08DB  8B 5E FE				mov		bx,-0x2[bp]
08DE  8A 07				mov		al,[bx]
08E0  88 46 AA				mov		-0x56[bp],al
08E3  0A C0				or		al,al
08E5  75 CB				jne		L$98
08E7  FF 76 04				push		word ptr 0x4[bp]
08EA  E8 D7 30				call		L$914
08ED  83 C4 02				add		sp,0x0002
08F0  8B F0				mov		si,ax
08F2  8A 42 AC				mov		al,-0x54[bp+si]
08F5  98				cbw
08F6  89 46 FC				mov		-0x4[bp],ax
08F9  0B C0				or		ax,ax
08FB  74 84				je		L$94
08FD  3D 5C 00				cmp		ax,0x005c
0900  75 93				jne		L$96
0902  E9 7C FF				jmp		L$94
0905				L$101:
0905  5E				pop		si
0906  8B E5				mov		sp,bp
0908  5D				pop		bp
0909  C3				ret
090A				L$102:
090A  55				push		bp
090B  8B EC				mov		bp,sp
090D  33 C0				xor		ax,ax
090F  E8 44 1C				call		L$592
0912  FF 76 04				push		word ptr 0x4[bp]
0915  E8 AC 30				call		L$914
0918  83 C4 02				add		sp,0x0002
091B  50				push		ax
091C  FF 76 06				push		word ptr 0x6[bp]
091F  FF 76 04				push		word ptr 0x4[bp]
0922  E8 BB 30				call		L$915
0925  83 C4 06				add		sp,0x0006
0928  8B C8				mov		cx,ax
092A  83 F9 01				cmp		cx,0x0001
092D  1B C0				sbb		ax,ax
092F  F7 D8				neg		ax
0931  5D				pop		bp
0932  C3				ret
0933  55				push		bp
0934  8B EC				mov		bp,sp
0936  33 C0				xor		ax,ax
0938  E8 1B 1C				call		L$592
093B  FF 76 04				push		word ptr 0x4[bp]
093E  B8 A6 02				mov		ax,0x02a6
0941  50				push		ax
0942  E8 61 1F				call		L$658
0945  83 C4 04				add		sp,0x0004
0948  B8 01 00				mov		ax,0x0001
094B  50				push		ax
094C  E8 35 1B				call		L$577
094F  83 C4 02				add		sp,0x0002
0952  5D				pop		bp
0953  C3				ret
0954				L$103:
0954  55				push		bp
0955  8B EC				mov		bp,sp
0957  B8 0E 00				mov		ax,0x000e
095A  E8 F9 1B				call		L$592
095D  C6 46 F3 1A			mov		byte ptr -0xd[bp],0x1a
0961  8B 46 08				mov		ax,0x8[bp]
0964  89 46 F8				mov		-0x8[bp],ax
0967  8D 46 F2				lea		ax,-0xe[bp]
096A  50				push		ax
096B  8D 46 F2				lea		ax,-0xe[bp]
096E  50				push		ax
096F  E8 D6 30				call		L$922
0972  83 C4 04				add		sp,0x0004
0975  C6 46 F3 4E			mov		byte ptr -0xd[bp],0x4e
0979  8B 46 06				mov		ax,0x6[bp]
097C  89 46 F6				mov		-0xa[bp],ax
097F  8B 46 04				mov		ax,0x4[bp]
0982  89 46 F8				mov		-0x8[bp],ax
0985  8D 46 F2				lea		ax,-0xe[bp]
0988  50				push		ax
0989  8D 46 F2				lea		ax,-0xe[bp]
098C  50				push		ax
098D  E8 B8 30				call		L$922
0990  83 C4 04				add		sp,0x0004
0993  83 7E FE 00			cmp		word ptr -0x2[bp],0x0000
0997  74 05				je		L$104
0999  B8 FF FF				mov		ax,0xffff
099C  EB 02				jmp		L$105
099E				L$104:
099E  2B C0				sub		ax,ax
09A0				L$105:
09A0  8B E5				mov		sp,bp
09A2  5D				pop		bp
09A3  C3				ret
09A4  55				push		bp
09A5  8B EC				mov		bp,sp
09A7  B8 0E 00				mov		ax,0x000e
09AA  E8 A9 1B				call		L$592
09AD  C6 46 F3 1A			mov		byte ptr -0xd[bp],0x1a
09B1  8B 46 04				mov		ax,0x4[bp]
09B4  89 46 F8				mov		-0x8[bp],ax
09B7  8D 46 F2				lea		ax,-0xe[bp]
09BA  50				push		ax
09BB  8D 46 F2				lea		ax,-0xe[bp]
09BE  50				push		ax
09BF  E8 86 30				call		L$922
09C2  83 C4 04				add		sp,0x0004
09C5  C6 46 F3 4F			mov		byte ptr -0xd[bp],0x4f
09C9  8D 46 F2				lea		ax,-0xe[bp]
09CC  50				push		ax
09CD  8D 46 F2				lea		ax,-0xe[bp]
09D0  50				push		ax
09D1  E8 74 30				call		L$922
09D4  83 C4 04				add		sp,0x0004
09D7  83 7E FE 00			cmp		word ptr -0x2[bp],0x0000
09DB  74 05				je		L$106
09DD  B8 FF FF				mov		ax,0xffff
09E0  EB 02				jmp		L$107
09E2				L$106:
09E2  2B C0				sub		ax,ax
09E4				L$107:
09E4  8B E5				mov		sp,bp
09E6  5D				pop		bp
09E7  C3				ret
09E8				L$108:
09E8  55				push		bp
09E9  8B EC				mov		bp,sp
09EB  B8 02 00				mov		ax,0x0002
09EE  E8 65 1B				call		L$592
09F1  FF 76 06				push		word ptr 0x6[bp]
09F4  FF 76 04				push		word ptr 0x4[bp]
09F7  E8 25 17				call		L$540
09FA  83 C4 04				add		sp,0x0004
09FD  89 46 FE				mov		-0x2[bp],ax
0A00  0B C0				or		ax,ax
0A02  75 0E				jne		L$109
0A04  FF 76 04				push		word ptr 0x4[bp]
0A07  E8 BA 2F				call		L$914
0A0A  83 C4 02				add		sp,0x0002
0A0D  03 46 04				add		ax,0x4[bp]
0A10  EB 03				jmp		L$110
0A12				L$109:
0A12  8B 46 FE				mov		ax,-0x2[bp]
0A15				L$110:
0A15  8B E5				mov		sp,bp
0A17  5D				pop		bp
0A18  C3				ret
0A19				L$111:
0A19  55				push		bp
0A1A  8B EC				mov		bp,sp
0A1C  B8 0E 00				mov		ax,0x000e
0A1F  E8 34 1B				call		L$592
0A22  8B 5E 04				mov		bx,0x4[bp]
0A25  FF 46 04				inc		word ptr 0x4[bp]
0A28  C6 07 5C				mov		byte ptr [bx],0x5c
0A2B  C6 46 F3 47			mov		byte ptr -0xd[bp],0x47
0A2F  8A 46 06				mov		al,0x6[bp]
0A32  88 46 F8				mov		-0x8[bp],al
0A35  8B 46 04				mov		ax,0x4[bp]
0A38  89 46 FA				mov		-0x6[bp],ax
0A3B  8D 46 F2				lea		ax,-0xe[bp]
0A3E  50				push		ax
0A3F  8D 46 F2				lea		ax,-0xe[bp]
0A42  50				push		ax
0A43  E8 02 30				call		L$922
0A46  83 C4 04				add		sp,0x0004
0A49  83 7E FE 00			cmp		word ptr -0x2[bp],0x0000
0A4D  74 05				je		L$112
0A4F  B8 FF FF				mov		ax,0xffff
0A52  EB 02				jmp		L$113
0A54				L$112:
0A54  2B C0				sub		ax,ax
0A56				L$113:
0A56  8B E5				mov		sp,bp
0A58  5D				pop		bp
0A59  C3				ret
0A5A				L$114:
0A5A  55				push		bp
0A5B  8B EC				mov		bp,sp
0A5D  B8 0E 00				mov		ax,0x000e
0A60  E8 F3 1A				call		L$592
0A63  57				push		di
0A64  56				push		si
0A65  E8 75 01				call		L$133
0A68  98				cbw
0A69  89 46 F4				mov		-0xc[bp],ax
0A6C  8B 5E 04				mov		bx,0x4[bp]
0A6F  8A 07				mov		al,[bx]
0A71  88 46 F2				mov		-0xe[bp],al
0A74  0A C0				or		al,al
0A76  74 11				je		L$115
0A78  80 7F 01 3A			cmp		byte ptr 0x1[bx],0x3a
0A7C  75 0B				jne		L$115
0A7E  98				cbw
0A7F  2D 41 00				sub		ax,0x0041
0A82  89 46 F4				mov		-0xc[bp],ax
0A85  83 46 04 02			add		word ptr 0x4[bp],0x0002
0A89				L$115:
0A89  8B 5E 06				mov		bx,0x6[bp]
0A8C  8A 46 F4				mov		al,-0xc[bp]
0A8F  04 41				add		al,0x41
0A91  88 07				mov		[bx],al
0A93  8B 5E 06				mov		bx,0x6[bp]
0A96  C6 47 01 3A			mov		byte ptr 0x1[bx],0x3a
0A9A  8B 5E 04				mov		bx,0x4[bp]
0A9D  80 3F 5C				cmp		byte ptr [bx],0x5c
0AA0  75 0C				jne		L$116
0AA2  53				push		bx
0AA3  8B 46 06				mov		ax,0x6[bp]
0AA6  40				inc		ax
0AA7  40				inc		ax
0AA8  50				push		ax
0AA9  E8 BA 2E				call		L$910
0AAC  EB 47				jmp		L$120
0AAE				L$116:
0AAE  8B 46 F4				mov		ax,-0xc[bp]
0AB1  40				inc		ax
0AB2  50				push		ax
0AB3  8B 46 06				mov		ax,0x6[bp]
0AB6  40				inc		ax
0AB7  40				inc		ax
0AB8  50				push		ax
0AB9  E8 5D FF				call		L$111
0ABC  83 C4 04				add		sp,0x0004
0ABF  0B C0				or		ax,ax
0AC1  74 06				je		L$118
0AC3				L$117:
0AC3  B8 FF FF				mov		ax,0xffff
0AC6  E9 0E 01				jmp		L$132
0AC9				L$118:
0AC9  8B 5E 04				mov		bx,0x4[bp]
0ACC  80 3F 00				cmp		byte ptr [bx],0x00
0ACF  74 1B				je		L$119
0AD1  FF 76 06				push		word ptr 0x6[bp]
0AD4  E8 ED 2E				call		L$914
0AD7  83 C4 02				add		sp,0x0002
0ADA  3D 03 00				cmp		ax,0x0003
0ADD  7E 0D				jle		L$119
0ADF  B8 AA 02				mov		ax,0x02aa
0AE2  50				push		ax
0AE3  FF 76 06				push		word ptr 0x6[bp]
0AE6  E8 3D 2E				call		L$908
0AE9  83 C4 04				add		sp,0x0004
0AEC				L$119:
0AEC  FF 76 04				push		word ptr 0x4[bp]
0AEF  FF 76 06				push		word ptr 0x6[bp]
0AF2  E8 31 2E				call		L$908
0AF5				L$120:
0AF5  83 C4 04				add		sp,0x0004
0AF8  8B 76 06				mov		si,0x6[bp]
0AFB  E9 B4 00				jmp		L$129
0AFE				L$121:
0AFE  8B FE				mov		di,si
0B00  B8 AC 02				mov		ax,0x02ac
0B03  50				push		ax
0B04  8D 45 01				lea		ax,0x1[di]
0B07  50				push		ax
0B08  E8 14 16				call		L$540
0B0B  83 C4 04				add		sp,0x0004
0B0E  8B F0				mov		si,ax
0B10  0B F6				or		si,si
0B12  75 0E				jne		L$122
0B14  FF 76 06				push		word ptr 0x6[bp]
0B17  E8 AA 2E				call		L$914
0B1A  83 C4 02				add		sp,0x0002
0B1D  8B F0				mov		si,ax
0B1F  03 76 06				add		si,0x6[bp]
0B22				L$122:
0B22  8A 04				mov		al,[si]
0B24  88 46 F8				mov		-0x8[bp],al
0B27  3C 5C				cmp		al,0x5c
0B29  75 04				jne		L$123
0B2B  C6 46 F8 5C			mov		byte ptr -0x8[bp],0x5c
0B2F				L$123:
0B2F  C6 04 00				mov		byte ptr [si],0x00
0B32  B8 AE 02				mov		ax,0x02ae
0B35  50				push		ax
0B36  8D 45 01				lea		ax,0x1[di]
0B39  50				push		ax
0B3A  E8 5B 2E				call		L$912
0B3D  83 C4 04				add		sp,0x0004
0B40  0B C0				or		ax,ax
0B42  75 11				jne		L$125
0B44  8A 46 F8				mov		al,-0x8[bp]
0B47  88 04				mov		[si],al
0B49				L$124:
0B49  56				push		si
0B4A  57				push		di
0B4B  E8 18 2E				call		L$910
0B4E  83 C4 04				add		sp,0x0004
0B51  8B F7				mov		si,di
0B53  EB 5D				jmp		L$129
0B55				L$125:
0B55  B8 B0 02				mov		ax,0x02b0
0B58  50				push		ax
0B59  8D 45 01				lea		ax,0x1[di]
0B5C  50				push		ax
0B5D  E8 38 2E				call		L$912
0B60  83 C4 04				add		sp,0x0004
0B63  0B C0				or		ax,ax
0B65  75 46				jne		L$128
0B67  8A 46 F8				mov		al,-0x8[bp]
0B6A  88 04				mov		[si],al
0B6C  8A 05				mov		al,[di]
0B6E  88 46 F8				mov		-0x8[bp],al
0B71  C6 05 00				mov		byte ptr [di],0x00
0B74  8B 46 06				mov		ax,0x6[bp]
0B77  48				dec		ax
0B78  89 46 FC				mov		-0x4[bp],ax
0B7B				L$126:
0B7B  B8 B3 02				mov		ax,0x02b3
0B7E  50				push		ax
0B7F  8B 46 FC				mov		ax,-0x4[bp]
0B82  40				inc		ax
0B83  89 46 FE				mov		-0x2[bp],ax
0B86  50				push		ax
0B87  E8 5E FE				call		L$108
0B8A  83 C4 04				add		sp,0x0004
0B8D  8B D8				mov		bx,ax
0B8F  89 5E FC				mov		-0x4[bp],bx
0B92  80 3F 00				cmp		byte ptr [bx],0x00
0B95  75 E4				jne		L$126
0B97  8A 46 F8				mov		al,-0x8[bp]
0B9A  88 05				mov		[di],al
0B9C  8B 46 06				mov		ax,0x6[bp]
0B9F  39 46 FE				cmp		-0x2[bp],ax
0BA2  75 03				jne		L$127
0BA4  E9 1C FF				jmp		L$117
0BA7				L$127:
0BA7  8B 7E FE				mov		di,-0x2[bp]
0BAA  4F				dec		di
0BAB  EB 9C				jmp		L$124
0BAD				L$128:
0BAD  8A 46 F8				mov		al,-0x8[bp]
0BB0  88 04				mov		[si],al
0BB2				L$129:
0BB2  80 3C 00				cmp		byte ptr [si],0x00
0BB5  74 03				je		L$130
0BB7  E9 44 FF				jmp		L$121
0BBA				L$130:
0BBA  FF 76 06				push		word ptr 0x6[bp]
0BBD  E8 04 2E				call		L$914
0BC0  83 C4 02				add		sp,0x0002
0BC3  3D 02 00				cmp		ax,0x0002
0BC6  75 0D				jne		L$131
0BC8  B8 B5 02				mov		ax,0x02b5
0BCB  50				push		ax
0BCC  FF 76 06				push		word ptr 0x6[bp]
0BCF  E8 54 2D				call		L$908
0BD2  83 C4 04				add		sp,0x0004
0BD5				L$131:
0BD5  2B C0				sub		ax,ax
0BD7				L$132:
0BD7  5E				pop		si
0BD8  5F				pop		di
0BD9  8B E5				mov		sp,bp
0BDB  5D				pop		bp
0BDC  C3				ret
0BDD				L$133:
0BDD  55				push		bp
0BDE  8B EC				mov		bp,sp
0BE0  B8 0E 00				mov		ax,0x000e
0BE3  E8 70 19				call		L$592
0BE6  C6 46 F3 19			mov		byte ptr -0xd[bp],0x19
0BEA  8D 46 F2				lea		ax,-0xe[bp]
0BED  50				push		ax
0BEE  8D 46 F2				lea		ax,-0xe[bp]
0BF1  50				push		ax
0BF2  E8 53 2E				call		L$922
0BF5  8A 46 F2				mov		al,-0xe[bp]
0BF8  2A E4				sub		ah,ah
0BFA  8B E5				mov		sp,bp
0BFC  5D				pop		bp
0BFD  C3				ret
0BFE				L$134:
0BFE  55				push		bp
0BFF  8B EC				mov		bp,sp
0C01  B8 0A 00				mov		ax,0x000a
0C04  E8 4F 19				call		L$592
0C07  C7 06 6C 0C 00 63			mov		word ptr ds:[0xc6c],0x6300
0C0D  B8 5C 0C				mov		ax,0x0c5c
0C10  50				push		ax
0C11  B8 C0 07				mov		ax,0x07c0
0C14  50				push		ax
0C15  B8 6C 0C				mov		ax,0x0c6c
0C18  50				push		ax
0C19  E8 74 2E				call		L$925
0C1C  83 C4 06				add		sp,0x0006
0C1F  C7 46 FE 00 00			mov		word ptr -0x2[bp],0x0000
0C24  8D 46 F6				lea		ax,-0xa[bp]
0C27  89 46 FC				mov		-0x4[bp],ax
0C2A  A1 C8 07				mov		ax,ds:[0x7c8]
0C2D  89 46 F6				mov		-0xa[bp],ax
0C30  83 46 FC 02			add		word ptr -0x4[bp],0x0002
0C34  8B 5E FC				mov		bx,-0x4[bp]
0C37  A1 62 0C				mov		ax,ds:[0xc62]
0C3A  89 07				mov		[bx],ax
0C3C  EB 04				jmp		L$136
0C3E				L$135:
0C3E  83 46 F6 02			add		word ptr -0xa[bp],0x0002
0C42				L$136:
0C42  C4 5E F6				les		bx,-0xa[bp]
0C45  B8 B7 02				mov		ax,0x02b7
0C48  26 39 07				cmp		es:[bx],ax
0C4B  74 13				je		L$137
0C4D  8A 46 04				mov		al,0x4[bp]
0C50  26 38 07				cmp		es:[bx],al
0C53  77 E9				ja		L$135
0C55  26 38 47 01			cmp		es:0x1[bx],al
0C59  72 E3				jb		L$135
0C5B  C7 46 FE FF FF			mov		word ptr -0x2[bp],0xffff
0C60				L$137:
0C60  2B C0				sub		ax,ax
0C62  50				push		ax
0C63  8D 46 FA				lea		ax,-0x6[bp]
0C66  50				push		ax
0C67  E8 FC 2C				call		L$910
0C6A  8B 46 FE				mov		ax,-0x2[bp]
0C6D  8B E5				mov		sp,bp
0C6F  5D				pop		bp
0C70  C3				ret
0C71  90				nop
0C72				L$138:
0C72  55				push		bp
0C73  8B EC				mov		bp,sp
0C75  B8 1E 00				mov		ax,0x001e
0C78  E8 DB 18				call		L$592
0C7B  57				push		di
0C7C  56				push		si
0C7D  8D 46 E6				lea		ax,-0x1a[bp]
0C80  8B F0				mov		si,ax
0C82  C6 44 01 52			mov		byte ptr 0x1[si],0x52
0C86  8D 46 F8				lea		ax,-0x8[bp]
0C89  50				push		ax
0C8A  56				push		si
0C8B  56				push		si
0C8C  E8 01 2E				call		L$925
0C8F  83 C4 06				add		sp,0x0006
0C92  8B 56 F8				mov		dx,-0x8[bp]
0C95  2B C0				sub		ax,ax
0C97  03 44 02				add		ax,0x2[si]
0C9A  83 D2 00				adc		dx,0x0000
0C9D  89 46 E2				mov		-0x1e[bp],ax
0CA0  89 56 E4				mov		-0x1c[bp],dx
0CA3  C7 46 F6 00 00			mov		word ptr -0xa[bp],0x0000
0CA8				L$139:
0CA8  8B 5E F6				mov		bx,-0xa[bp]
0CAB  C4 7E E2				les		di,-0x1e[bp]
0CAE  26 8A 01				mov		al,es:[bx+di]
0CB1  8B 7E 04				mov		di,0x4[bp]
0CB4  88 01				mov		[bx+di],al
0CB6  FF 46 F6				inc		word ptr -0xa[bp]
0CB9  83 7E F6 43			cmp		word ptr -0xa[bp],0x0043
0CBD  7E E9				jle		L$139
0CBF  5E				pop		si
0CC0  5F				pop		di
0CC1  8B E5				mov		sp,bp
0CC3  5D				pop		bp
0CC4  C3				ret
0CC5				L$140:
0CC5  55				push		bp
0CC6  8B EC				mov		bp,sp
0CC8  B8 1E 00				mov		ax,0x001e
0CCB  E8 88 18				call		L$592
0CCE  57				push		di
0CCF  56				push		si
0CD0  8D 46 E6				lea		ax,-0x1a[bp]
0CD3  8B F0				mov		si,ax
0CD5  C6 44 01 52			mov		byte ptr 0x1[si],0x52
0CD9  8D 46 F8				lea		ax,-0x8[bp]
0CDC  50				push		ax
0CDD  56				push		si
0CDE  56				push		si
0CDF  E8 AE 2D				call		L$925
0CE2  83 C4 06				add		sp,0x0006
0CE5  8B 56 F8				mov		dx,-0x8[bp]
0CE8  2B C0				sub		ax,ax
0CEA  03 44 02				add		ax,0x2[si]
0CED  83 D2 00				adc		dx,0x0000
0CF0  89 46 E2				mov		-0x1e[bp],ax
0CF3  89 56 E4				mov		-0x1c[bp],dx
0CF6  C7 46 F6 00 00			mov		word ptr -0xa[bp],0x0000
0CFB				L$141:
0CFB  8B 5E F6				mov		bx,-0xa[bp]
0CFE  8B 7E 04				mov		di,0x4[bp]
0D01  8A 01				mov		al,[bx+di]
0D03  C4 7E E2				les		di,-0x1e[bp]
0D06  26 88 01				mov		es:[bx+di],al
0D09  FF 46 F6				inc		word ptr -0xa[bp]
0D0C  83 7E F6 43			cmp		word ptr -0xa[bp],0x0043
0D10  7E E9				jle		L$141
0D12  5E				pop		si
0D13  5F				pop		di
0D14  8B E5				mov		sp,bp
0D16  5D				pop		bp
0D17  C3				ret
0D18				L$142:
0D18  55				push		bp
0D19  8B EC				mov		bp,sp
0D1B  B8 06 00				mov		ax,0x0006
0D1E  E8 35 18				call		L$592
0D21  56				push		si
0D22  83 7E 04 00			cmp		word ptr 0x4[bp],0x0000
0D26  7C 3F				jl		L$144
0D28  A0 39 0C				mov		al,ds:[0xc39]
0D2B  98				cbw
0D2C  39 46 04				cmp		0x4[bp],ax
0D2F  7D 36				jge		L$144
0D31  B8 58 00				mov		ax,0x0058
0D34  F7 6E 04				imul		word ptr 0x4[bp]
0D37  99				cwd
0D38  03 06 2E 0C			add		ax,ds:[0xc2e]
0D3C  13 16 30 0C			adc		dx,ds:[0xc30]
0D40  89 46 FC				mov		-0x4[bp],ax
0D43  89 56 FE				mov		-0x2[bp],dx
0D46  C7 46 FA 00 00			mov		word ptr -0x6[bp],0x0000
0D4B				L$143:
0D4B  8B 5E FA				mov		bx,-0x6[bp]
0D4E  C4 76 FC				les		si,-0x4[bp]
0D51  26 8A 00				mov		al,es:[bx+si]
0D54  8B 76 06				mov		si,0x6[bp]
0D57  88 00				mov		[bx+si],al
0D59  FF 46 FA				inc		word ptr -0x6[bp]
0D5C  83 7E FA 58			cmp		word ptr -0x6[bp],0x0058
0D60  7C E9				jl		L$143
0D62  B8 FF FF				mov		ax,0xffff
0D65  EB 02				jmp		L$145
0D67				L$144:
0D67  2B C0				sub		ax,ax
0D69				L$145:
0D69  5E				pop		si
0D6A  8B E5				mov		sp,bp
0D6C  5D				pop		bp
0D6D  C3				ret
0D6E				L$146:
0D6E  55				push		bp
0D6F  8B EC				mov		bp,sp
0D71  B8 06 00				mov		ax,0x0006
0D74  E8 DF 17				call		L$592
0D77  56				push		si
0D78  83 7E 04 00			cmp		word ptr 0x4[bp],0x0000
0D7C  7C 3F				jl		L$148
0D7E  A0 39 0C				mov		al,ds:[0xc39]
0D81  98				cbw
0D82  39 46 04				cmp		0x4[bp],ax
0D85  7D 36				jge		L$148
0D87  B8 58 00				mov		ax,0x0058
0D8A  F7 6E 04				imul		word ptr 0x4[bp]
0D8D  99				cwd
0D8E  03 06 2E 0C			add		ax,ds:[0xc2e]
0D92  13 16 30 0C			adc		dx,ds:[0xc30]
0D96  89 46 FC				mov		-0x4[bp],ax
0D99  89 56 FE				mov		-0x2[bp],dx
0D9C  C7 46 FA 00 00			mov		word ptr -0x6[bp],0x0000
0DA1				L$147:
0DA1  8B 5E FA				mov		bx,-0x6[bp]
0DA4  8B 76 06				mov		si,0x6[bp]
0DA7  8A 00				mov		al,[bx+si]
0DA9  C4 76 FC				les		si,-0x4[bp]
0DAC  26 88 00				mov		es:[bx+si],al
0DAF  FF 46 FA				inc		word ptr -0x6[bp]
0DB2  83 7E FA 58			cmp		word ptr -0x6[bp],0x0058
0DB6  7C E9				jl		L$147
0DB8  B8 FF FF				mov		ax,0xffff
0DBB  EB 02				jmp		L$149
0DBD				L$148:
0DBD  2B C0				sub		ax,ax
0DBF				L$149:
0DBF  5E				pop		si
0DC0  8B E5				mov		sp,bp
0DC2  5D				pop		bp
0DC3  C3				ret
0DC4				L$150:
0DC4  55				push		bp
0DC5  8B EC				mov		bp,sp
0DC7  B8 82 00				mov		ax,0x0082
0DCA  E8 89 17				call		L$592
0DCD  56				push		si
0DCE  8D 46 DC				lea		ax,-0x24[bp]
0DD1  89 46 FE				mov		-0x2[bp],ax
0DD4  8D 46 84				lea		ax,-0x7c[bp]
0DD7  50				push		ax
0DD8  FF 76 04				push		word ptr 0x4[bp]
0DDB  E8 3A FF				call		L$142
0DDE  83 C4 04				add		sp,0x0004
0DE1  0A C0				or		al,al
0DE3  74 3F				je		L$152
0DE5  F7 46 C7 00 B0			test		word ptr -0x39[bp],0xb000
0DEA  75 38				jne		L$152
0DEC  8B 46 C9				mov		ax,-0x37[bp]
0DEF  8B 56 CB				mov		dx,-0x35[bp]
0DF2  89 86 7E FF			mov		-0x82[bp],ax
0DF6  89 56 80				mov		-0x80[bp],dx
0DF9  C7 46 82 00 00			mov		word ptr -0x7e[bp],0x0000
0DFE				L$151:
0DFE  8B 5E 82				mov		bx,-0x7e[bp]
0E01  C4 B6 7E FF			les		si,-0x82[bp]
0E05  26 8A 00				mov		al,es:[bx+si]
0E08  8B 76 FE				mov		si,-0x2[bp]
0E0B  88 00				mov		[bx+si],al
0E0D  FF 46 82				inc		word ptr -0x7e[bp]
0E10  83 7E 82 21			cmp		word ptr -0x7e[bp],0x0021
0E14  7C E8				jl		L$151
0E16  8A 46 DC				mov		al,-0x24[bp]
0E19  98				cbw
0E1A  3B 46 04				cmp		ax,0x4[bp]
0E1D  75 05				jne		L$152
0E1F  B8 01 00				mov		ax,0x0001
0E22  EB 02				jmp		L$153
0E24				L$152:
0E24  2B C0				sub		ax,ax
0E26				L$153:
0E26  5E				pop		si
0E27  8B E5				mov		sp,bp
0E29  5D				pop		bp
0E2A  C3				ret
0E2B				L$154:
0E2B  55				push		bp
0E2C  8B EC				mov		bp,sp
0E2E  B8 68 00				mov		ax,0x0068
0E31  E8 22 17				call		L$592
0E34  56				push		si
0E35  8D 46 98				lea		ax,-0x68[bp]
0E38  8B F0				mov		si,ax
0E3A  8D 46 A8				lea		ax,-0x58[bp]
0E3D  50				push		ax
0E3E  FF 76 04				push		word ptr 0x4[bp]
0E41  E8 D4 FE				call		L$142
0E44  83 C4 04				add		sp,0x0004
0E47  0A C0				or		al,al
0E49  75 04				jne		L$155
0E4B  2B C0				sub		ax,ax
0E4D  EB 21				jmp		L$156
0E4F				L$155:
0E4F  C7 04 09 44			mov		word ptr [si],0x4409
0E53  8B 46 04				mov		ax,0x4[bp]
0E56  40				inc		ax
0E57  89 44 02				mov		0x2[si],ax
0E5A  56				push		si
0E5B  56				push		si
0E5C  E8 E9 2B				call		L$922
0E5F  83 C4 04				add		sp,0x0004
0E62  8B 46 EB				mov		ax,-0x15[bp]
0E65  25 00 80				and		ax,0x8000
0E68  8B C8				mov		cx,ax
0E6A  83 F9 01				cmp		cx,0x0001
0E6D  1B C0				sbb		ax,ax
0E6F  40				inc		ax
0E70				L$156:
0E70  5E				pop		si
0E71  8B E5				mov		sp,bp
0E73  5D				pop		bp
0E74  C3				ret
0E75				L$157:
0E75  55				push		bp
0E76  8B EC				mov		bp,sp
0E78  B8 68 00				mov		ax,0x0068
0E7B  E8 D8 16				call		L$592
0E7E  56				push		si
0E7F  8D 46 98				lea		ax,-0x68[bp]
0E82  8B F0				mov		si,ax
0E84  8D 46 A6				lea		ax,-0x5a[bp]
0E87  50				push		ax
0E88  FF 76 04				push		word ptr 0x4[bp]
0E8B  E8 8A FE				call		L$142
0E8E  83 C4 04				add		sp,0x0004
0E91  0A C0				or		al,al
0E93  74 26				je		L$159
0E95  C7 04 09 44			mov		word ptr [si],0x4409
0E99  8B 46 04				mov		ax,0x4[bp]
0E9C  40				inc		ax
0E9D  89 44 02				mov		0x2[si],ax
0EA0  56				push		si
0EA1  56				push		si
0EA2  E8 A3 2B				call		L$922
0EA5  83 C4 04				add		sp,0x0004
0EA8  F7 46 E9 00 80			test		word ptr -0x17[bp],0x8000
0EAD  75 07				jne		L$158
0EAF  F7 44 06 00 02			test		word ptr 0x6[si],0x0200
0EB4  74 05				je		L$159
0EB6				L$158:
0EB6  B8 01 00				mov		ax,0x0001
0EB9  EB 02				jmp		L$160
0EBB				L$159:
0EBB  2B C0				sub		ax,ax
0EBD				L$160:
0EBD  5E				pop		si
0EBE  8B E5				mov		sp,bp
0EC0  5D				pop		bp
0EC1  C3				ret
0EC2  55				push		bp
0EC3  8B EC				mov		bp,sp
0EC5  B8 2A 00				mov		ax,0x002a
0EC8  E8 8B 16				call		L$592
0ECB  56				push		si
0ECC  8D 46 DC				lea		ax,-0x24[bp]
0ECF  89 46 FE				mov		-0x2[bp],ax
0ED2  A1 18 0C				mov		ax,ds:[0xc18]
0ED5  8B 16 1A 0C			mov		dx,ds:[0xc1a]
0ED9  89 46 F5				mov		-0xb[bp],ax
0EDC  89 56 F7				mov		-0x9[bp],dx
0EDF  89 46 D6				mov		-0x2a[bp],ax
0EE2  89 56 D8				mov		-0x28[bp],dx
0EE5  C6 46 DC FF			mov		byte ptr -0x24[bp],0xff
0EE9  EB 38				jmp		L$165
0EEB				L$161:
0EEB  8B 46 F5				mov		ax,-0xb[bp]
0EEE  40				inc		ax
0EEF  75 06				jne		L$162
0EF1  B8 FF FF				mov		ax,0xffff
0EF4  99				cwd
0EF5  EB 3B				jmp		L$166
0EF7				L$162:
0EF7  8B 46 F5				mov		ax,-0xb[bp]
0EFA  8B 56 F7				mov		dx,-0x9[bp]
0EFD  89 46 D6				mov		-0x2a[bp],ax
0F00  89 56 D8				mov		-0x28[bp],dx
0F03  C7 46 DA 00 00			mov		word ptr -0x26[bp],0x0000
0F08  EB 03				jmp		L$164
0F0A				L$163:
0F0A  FF 46 DA				inc		word ptr -0x26[bp]
0F0D				L$164:
0F0D  83 7E DA 21			cmp		word ptr -0x26[bp],0x0021
0F11  7D 10				jge		L$165
0F13  8B 5E DA				mov		bx,-0x26[bp]
0F16  C4 76 D6				les		si,-0x2a[bp]
0F19  26 8A 00				mov		al,es:[bx+si]
0F1C  8B 76 FE				mov		si,-0x2[bp]
0F1F  88 00				mov		[bx+si],al
0F21  EB E7				jmp		L$163
0F23				L$165:
0F23  8A 46 DC				mov		al,-0x24[bp]
0F26  98				cbw
0F27  3B 46 04				cmp		ax,0x4[bp]
0F2A  75 BF				jne		L$161
0F2C  8B 46 D6				mov		ax,-0x2a[bp]
0F2F  8B 56 D8				mov		dx,-0x28[bp]
0F32				L$166:
0F32  5E				pop		si
0F33  8B E5				mov		sp,bp
0F35  5D				pop		bp
0F36  C3				ret
0F37  90				nop
0F38				L$167:
0F38  50				push		ax
0F39  53				push		bx
0F3A  52				push		dx
0F3B  06				push		es
0F3C  57				push		di
0F3D  33 C9				xor		cx,cx
0F3F  8E C1				mov		es,cx
0F41  33 FF				xor		di,di
0F43  B8 2E 12				mov		ax,0x122e
0F46  B2 00				mov		dl,0x00
0F48  CD 2F				int		0x2f
0F4A  36 8C 06 C4 02			mov		word ptr ss:[0x2c4],es
0F4F  36 89 3E C2 02			mov		ss:[0x2c2],di
0F54  B8 2E 12				mov		ax,0x122e
0F57  B2 02				mov		dl,0x02
0F59  CD 2F				int		0x2f
0F5B  36 8C 06 CC 02			mov		word ptr ss:[0x2cc],es
0F60  36 89 3E CA 02			mov		ss:[0x2ca],di
0F65  B8 2E 12				mov		ax,0x122e
0F68  B2 04				mov		dl,0x04
0F6A  CD 2F				int		0x2f
0F6C  36 8C 06 DC 02			mov		word ptr ss:[0x2dc],es
0F71  36 89 3E DA 02			mov		ss:[0x2da],di
0F76  B8 2E 12				mov		ax,0x122e
0F79  B2 06				mov		dl,0x06
0F7B  CD 2F				int		0x2f
0F7D  36 8C 06 C0 02			mov		word ptr ss:[0x2c0],es
0F82  36 89 3E BE 02			mov		ss:[0x2be],di
0F87  9A 7F 18 00 00			call		L$369
0F8C  36 8C 06 BC 02			mov		word ptr ss:[0x2bc],es
0F91  36 89 3E BA 02			mov		ss:[0x2ba],di
0F96  36 8C 06 D8 02			mov		word ptr ss:[0x2d8],es
0F9B  36 89 3E D6 02			mov		ss:[0x2d6],di
0FA0  9A A0 18 00 00			call		L$374
0FA5  36 8C 06 D0 02			mov		word ptr ss:[0x2d0],es
0FAA  36 89 3E CE 02			mov		ss:[0x2ce],di
0FAF  B8 2E 12				mov		ax,0x122e
0FB2  B2 08				mov		dl,0x08
0FB4  CD 2F				int		0x2f
0FB6  36 8C 06 E4 02			mov		word ptr ss:[0x2e4],es
0FBB  36 89 3E E2 02			mov		ss:[0x2e2],di
0FC0  9A 5B 18 00 00			call		L$365
0FC5  36 8C 06 E8 02			mov		word ptr ss:[0x2e8],es
0FCA  36 89 3E E6 02			mov		ss:[0x2e6],di
0FCF  E8 19 00				call		L$170
0FD2  E8 30 00				call		L$172
0FD5  E8 40 00				call		L$173
0FD8  51				push		cx
0FD9  E8 4F 00				call		L$174
0FDC  72 08				jb		L$168
0FDE  59				pop		cx
0FDF  5F				pop		di
0FE0  07				pop		es
0FE1  5A				pop		dx
0FE2  5B				pop		bx
0FE3  58				pop		ax
0FE4  EB 04				jmp		L$169
0FE6				L$168:
0FE6  83 C4 0C				add		sp,0x000c
0FE9  F9				stc
0FEA				L$169:
0FEA  CB				retf
0FEB				L$170:
0FEB  50				push		ax
0FEC  56				push		si
0FED  1E				push		ds
0FEE  B8 00 63				mov		ax,0x6300
0FF1  CD 21				int		0x21
0FF3  1E				push		ds
0FF4  07				pop		es
0FF5  1F				pop		ds
0FF6  72 0A				jb		L$171
0FF8  36 89 36 EE 02			mov		ss:[0x2ee],si
0FFD  36 8C 06 F0 02			mov		word ptr ss:[0x2f0],es
1002				L$171:
1002  5E				pop		si
1003  58				pop		ax
1004  C3				ret
1005				L$172:
1005  B8 00 44				mov		ax,0x4400
1008  BB 00 00				mov		bx,0x0000
100B  33 D2				xor		dx,dx
100D  CD 21				int		0x21
100F  80 CE 01				or		dh,0x01
1012  B8 01 44				mov		ax,0x4401
1015  CD 21				int		0x21
1017  C3				ret
1018				L$173:
1018  B8 00 44				mov		ax,0x4400
101B  BB 01 00				mov		bx,0x0001
101E  33 D2				xor		dx,dx
1020  CD 21				int		0x21
1022  80 CE 01				or		dh,0x01
1025  B8 01 44				mov		ax,0x4401
1028  CD 21				int		0x21
102A  C3				ret
102B				L$174:
102B  B4 30				mov		ah,0x30
102D  CD 21				int		0x21
102F  3D 04 00				cmp		ax,0x0004
1032  75 03				jne		L$175
1034  F8				clc
1035  EB 18				jmp		L$178
1037				L$175:
1037  3D 02 00				cmp		ax,0x0002
103A  73 05				jae		L$176
103C  BB FF FF				mov		bx,0xffff
103F  EB 03				jmp		L$177
1041				L$176:
1041  BB 02 00				mov		bx,0x0002
1044				L$177:
1044  B8 01 00				mov		ax,0x0001
1047  B9 00 00				mov		cx,0x0000
104A  B2 00				mov		dl,0x00
104C  B6 FF				mov		dh,0xff
104E  F9				stc
104F				L$178:
104F  C3				ret
1050				L$179:
1050  50				push		ax
1051  06				push		es
1052  57				push		di
1053  55				push		bp
1054  9A 6E 10 00 00			call		L$183
1059  72 0E				jb		L$182
105B  80 FE FF				cmp		dh,0xff
105E  F8				clc
105F  74 04				je		L$180
1061  06				push		es
1062  1F				pop		ds
1063  EB 02				jmp		L$181
1065				L$180:
1065  06				push		es
1066  1F				pop		ds
1067				L$181:
1067  8B F7				mov		si,di
1069				L$182:
1069  5D				pop		bp
106A  5F				pop		di
106B  07				pop		es
106C  58				pop		ax
106D  CB				retf
106E				L$183:
106E  56				push		si
106F  53				push		bx
1070  33 F6				xor		si,si
1072  33 C9				xor		cx,cx
1074				L$184:
1074  80 FE FF				cmp		dh,0xff
1077  75 09				jne		L$185
1079  36 C4 BC E6 02			les		di,ss:0x2e6[si]
107E  8C C3				mov		bx,es
1080  EB 28				jmp		L$188
1082				L$185:
1082  F6 C6 02				test		dh,0x02
1085  74 09				je		L$186
1087  36 C4 BC CA 02			les		di,ss:0x2ca[si]
108C  8C C3				mov		bx,es
108E  EB 1A				jmp		L$188
1090				L$186:
1090  3D 13 00				cmp		ax,0x0013
1093  72 0E				jb		L$187
1095  3D 27 00				cmp		ax,0x0027
1098  77 09				ja		L$187
109A  36 C4 BC D6 02			les		di,ss:0x2d6[si]
109F  8C C3				mov		bx,es
10A1  EB 07				jmp		L$188
10A3				L$187:
10A3  36 C4 BC BA 02			les		di,ss:0x2ba[si]
10A8  8C C3				mov		bx,es
10AA				L$188:
10AA  83 FB FF				cmp		bx,0xffff
10AD  75 17				jne		L$191
10AF  80 FE FF				cmp		dh,0xff
10B2  75 03				jne		L$189
10B4  F9				stc
10B5  EB 0D				jmp		L$190
10B7				L$189:
10B7  36 A3 FA 02			mov		ss:[0x2fa],ax
10BB  B8 FF FF				mov		ax,0xffff
10BE  BD 01 00				mov		bp,0x0001
10C1  33 F6				xor		si,si
10C3  F8				clc
10C4				L$190:
10C4  EB 0C				jmp		L$193
10C6				L$191:
10C6  83 FB 00				cmp		bx,0x0000
10C9  74 03				je		L$192
10CB  E8 54 00				call		L$203
10CE				L$192:
10CE  83 C6 04				add		si,0x0004
10D1  F8				clc
10D2				L$193:
10D2  72 06				jb		L$194
10D4  0B C9				or		cx,cx
10D6  75 02				jne		L$194
10D8  EB 9A				jmp		L$184
10DA				L$194:
10DA  9C				pushf
10DB  80 FE 01				cmp		dh,0x01
10DE  75 29				jne		L$199
10E0  52				push		dx
10E1  55				push		bp
10E2  51				push		cx
10E3  06				push		es
10E4  57				push		di
10E5  50				push		ax
10E6  B8 00 05				mov		ax,0x0500
10E9  CD 2F				int		0x2f
10EB  3C FF				cmp		al,0xff
10ED  58				pop		ax
10EE  75 09				jne		L$195
10F0  8B D8				mov		bx,ax
10F2  B8 02 05				mov		ax,0x0502
10F5  CD 2F				int		0x2f
10F7  EB 01				jmp		L$196
10F9				L$195:
10F9  F9				stc
10FA				L$196:
10FA  73 05				jae		L$197
10FC  5F				pop		di
10FD  07				pop		es
10FE  59				pop		cx
10FF  EB 06				jmp		L$198
1101				L$197:
1101  83 C4 06				add		sp,0x0006
1104  E8 0C 00				call		L$202
1107				L$198:
1107  5D				pop		bp
1108  5A				pop		dx
1109				L$199:
1109  EB 01				jmp		L$201
110B				L$200:
110B  CF				iret
110C				L$201:
110C  0E				push		cs
110D  E8 FB FF				call		L$200
1110  5B				pop		bx
1111  5E				pop		si
1112  CB				retf
1113				L$202:
1113  57				push		di
1114  50				push		ax
1115  B9 FF FF				mov		cx,0xffff
1118  32 C0				xor		al,al
111A  F2 AE				repne scasb
111C  F7 D1				not		cx
111E  49				dec		cx
111F  58				pop		ax
1120  5F				pop		di
1121  C3				ret
1122				L$203:
1122  83 FB 01				cmp		bx,0x0001
1125  75 21				jne		L$206
1127  36 83 3E E2 02 FF			cmp		word ptr ss:[0x2e2],0xffff
112D  74 19				je		L$206
112F  3D FF FF				cmp		ax,0xffff
1132  75 0D				jne		L$204
1134  50				push		ax
1135  36 A1 FA 02			mov		ax,ss:[0x2fa]
1139  36 FF 1E E2 02			call		dword ptr ss:[0x2e2]
113E  58				pop		ax
113F  EB 05				jmp		L$205
1141				L$204:
1141  36 FF 1E E2 02			call		dword ptr ss:[0x2e2]
1146				L$205:
1146  EB 1A				jmp		L$209
1148				L$206:
1148  33 C9				xor		cx,cx
114A  80 FE FF				cmp		dh,0xff
114D  74 06				je		L$207
114F  26 8A 4D 03			mov		cl,es:0x3[di]
1153  EB 09				jmp		L$208
1155				L$207:
1155  26 38 35				cmp		es:[di],dh
1158  75 04				jne		L$208
115A  26 8A 4D 03			mov		cl,es:0x3[di]
115E				L$208:
115E  83 C7 04				add		di,0x0004
1161  F9				stc
1162				L$209:
1162  73 2B				jae		L$217
1164  F8				clc
1165				L$210:
1165  0B C9				or		cx,cx
1167  74 19				je		L$214
1169  80 FE FF				cmp		dh,0xff
116C  74 05				je		L$211
116E  26 3B 05				cmp		ax,es:[di]
1171  EB 03				jmp		L$212
1173				L$211:
1173  26 3B 05				cmp		ax,es:[di]
1176				L$212:
1176  75 02				jne		L$213
1178  EB 09				jmp		L$215
117A				L$213:
117A  49				dec		cx
117B  74 05				je		L$214
117D  83 C7 04				add		di,0x0004
1180  EB E3				jmp		L$210
1182				L$214:
1182  F9				stc
1183				L$215:
1183  72 0A				jb		L$217
1185  80 FE FF				cmp		dh,0xff
1188  F8				clc
1189  75 00				jne		L$216
118B				L$216:
118B  26 03 7D 02			add		di,es:0x2[di]
118F				L$217:
118F  72 06				jb		L$218
1191  32 ED				xor		ch,ch
1193  26 8A 0D				mov		cl,es:[di]
1196  47				inc		di
1197				L$218:
1197  36 C6 06 F4 02 00			mov		byte ptr ss:[0x2f4],0x00
119D  C3				ret
119E				L$219:
119E  50				push		ax
119F  53				push		bx
11A0  51				push		cx
11A1  55				push		bp
11A2  57				push		di
11A3  06				push		es
11A4  52				push		dx
11A5  8B E9				mov		bp,cx
11A7  36 89 1E F2 02			mov		ss:[0x2f2],bx
11AC  36 88 36 F7 02			mov		ss:[0x2f7],dh
11B1  9A 6E 10 00 00			call		L$183
11B6  0B C9				or		cx,cx
11B8  74 23				je		L$225
11BA  0B ED				or		bp,bp
11BC  75 05				jne		L$220
11BE  E8 2F 00				call		L$229
11C1  EB 03				jmp		L$221
11C3				L$220:
11C3  E8 7F 01				call		L$263
11C6				L$221:
11C6  72 0F				jb		L$223
11C8  5A				pop		dx
11C9  E8 CC 00				call		L$246
11CC  07				pop		es
11CD  5F				pop		di
11CE  0A D2				or		dl,dl
11D0  74 03				je		L$222
11D2  E8 F0 05				call		L$355
11D5				L$222:
11D5  EB 04				jmp		L$224
11D7				L$223:
11D7  83 C4 06				add		sp,0x0006
11DA  F9				stc
11DB				L$224:
11DB  EB 04				jmp		L$226
11DD				L$225:
11DD  07				pop		es
11DE  5F				pop		di
11DF  5A				pop		dx
11E0  F9				stc
11E1				L$226:
11E1  72 08				jb		L$227
11E3  5D				pop		bp
11E4  59				pop		cx
11E5  5B				pop		bx
11E6  83 C4 02				add		sp,0x0002
11E9  EB 04				jmp		L$228
11EB				L$227:
11EB  83 C4 08				add		sp,0x0008
11EE  F9				stc
11EF				L$228:
11EF  CB				retf
11F0				L$229:
11F0  50				push		ax
11F1  53				push		bx
11F2  52				push		dx
11F3  36 8B 1E F2 02			mov		bx,ss:[0x2f2]
11F8  83 FB FF				cmp		bx,0xffff
11FB  75 05				jne		L$230
11FD  E8 2C 00				call		L$235
1200  EB 03				jmp		L$231
1202				L$230:
1202  E8 5C 00				call		L$240
1205				L$231:
1205  73 0F				jae		L$232
1207  B4 59				mov		ah,0x59
1209  BB 00 00				mov		bx,0x0000
120C  CD 21				int		0x21
120E  32 E4				xor		ah,ah
1210  83 C4 06				add		sp,0x0006
1213  F9				stc
1214  EB 10				jmp		L$233
1216				L$232:
1216  83 FB FF				cmp		bx,0xffff
1219  74 0B				je		L$233
121B  3B C1				cmp		ax,cx
121D  74 07				je		L$233
121F  E8 6D 00				call		L$245
1222  83 C4 06				add		sp,0x0006
1225  F9				stc
1226				L$233:
1226  72 03				jb		L$234
1228  5A				pop		dx
1229  5B				pop		bx
122A  58				pop		ax
122B				L$234:
122B  C3				ret
122C				L$235:
122C  1E				push		ds
122D  06				push		es
122E  1F				pop		ds
122F  83 F9 01				cmp		cx,0x0001
1232  75 1B				jne		L$237
1234  B4 02				mov		ah,0x02
1236  26 8A 15				mov		dl,es:[di]
1239  CD 21				int		0x21
123B  1F				pop		ds
123C  8A C2				mov		al,dl
123E  E8 6E 00				call		L$248
1241  1E				push		ds
1242  06				push		es
1243  1F				pop		ds
1244  73 07				jae		L$236
1246  26 8A 55 01			mov		dl,es:0x1[di]
124A  CD 21				int		0x21
124C  F8				clc
124D				L$236:
124D  EB 0F				jmp		L$239
124F				L$237:
124F  B4 02				mov		ah,0x02
1251				L$238:
1251  0B C9				or		cx,cx
1253  74 09				je		L$239
1255  26 8A 15				mov		dl,es:[di]
1258  CD 21				int		0x21
125A  47				inc		di
125B  49				dec		cx
125C  75 F3				jne		L$238
125E				L$239:
125E  F8				clc
125F  1F				pop		ds
1260  C3				ret
1261				L$240:
1261  33 C0				xor		ax,ax
1263  0B C9				or		cx,cx
1265  74 27				je		L$244
1267  1E				push		ds
1268  06				push		es
1269  1F				pop		ds
126A  B4 40				mov		ah,0x40
126C  8B D7				mov		dx,di
126E  83 F9 01				cmp		cx,0x0001
1271  75 18				jne		L$242
1273  CD 21				int		0x21
1275  1F				pop		ds
1276  50				push		ax
1277  26 8A 05				mov		al,es:[di]
127A  E8 32 00				call		L$248
127D  58				pop		ax
127E  1E				push		ds
127F  06				push		es
1280  1F				pop		ds
1281  73 06				jae		L$241
1283  F8				clc
1284  B4 40				mov		ah,0x40
1286  42				inc		dx
1287  CD 21				int		0x21
1289				L$241:
1289  EB 02				jmp		L$243
128B				L$242:
128B  CD 21				int		0x21
128D				L$243:
128D  1F				pop		ds
128E				L$244:
128E  C3				ret
128F				L$245:
128F  B8 27 00				mov		ax,0x0027
1292  BB 04 00				mov		bx,0x0004
1295  B5 01				mov		ch,0x01
1297  C3				ret
1298				L$246:
1298  80 FE FF				cmp		dh,0xff
129B  74 11				je		L$247
129D  F6 C6 80				test		dh,0x80
12A0  75 0C				jne		L$247
12A2  1E				push		ds
12A3  07				pop		es
12A4  8D 3E F5 02			lea		di,L$39
12A8  B9 02 00				mov		cx,0x0002
12AB  E8 42 FF				call		L$229
12AE				L$247:
12AE  C3				ret
12AF				L$248:
12AF  06				push		es
12B0  57				push		di
12B1  36 C4 3E EE 02			les		di,ss:[0x2ee]
12B6  0B FF				or		di,di
12B8  74 17				je		L$251
12BA				L$249:
12BA  26 83 3D 00			cmp		word ptr es:[di],0x0000
12BE  F8				clc
12BF  74 10				je		L$251
12C1  26 3A 05				cmp		al,es:[di]
12C4  72 07				jb		L$250
12C6  26 3A 45 01			cmp		al,es:0x1[di]
12CA  77 01				ja		L$250
12CC  F9				stc
12CD				L$250:
12CD  47				inc		di
12CE  47				inc		di
12CF  EB E9				jmp		L$249
12D1				L$251:
12D1  5F				pop		di
12D2  07				pop		es
12D3  C3				ret
12D4				L$252:
12D4  36 8F 06 F8 02			pop		word ptr ss:[0x2f8]
12D9  33 DB				xor		bx,bx
12DB  93				xchg		ax,bx
12DC  92				xchg		ax,dx
12DD				L$253:
12DD  36 F7 36 FC 02			div		word ptr ss:[0x2fc]
12E2  93				xchg		ax,bx
12E3  36 F7 36 FC 02			div		word ptr ss:[0x2fc]
12E8  83 FA 09				cmp		dx,0x0009
12EB  76 05				jbe		L$254
12ED  80 C2 37				add		dl,0x37
12F0  EB 03				jmp		L$255
12F2				L$254:
12F2  80 C2 30				add		dl,0x30
12F5				L$255:
12F5  52				push		dx
12F6  41				inc		cx
12F7  0B C0				or		ax,ax
12F9  75 04				jne		L$256
12FB  0B DB				or		bx,bx
12FD  74 3C				je		L$262
12FF				L$256:
12FF  83 F9 03				cmp		cx,0x0003
1302  75 0E				jne		L$258
1304  80 7C 0A 2C			cmp		byte ptr 0xa[si],0x2c
1308  75 06				jne		L$257
130A  36 FF 36 05 03			push		word ptr ss:[0x305]
130F  41				inc		cx
1310				L$257:
1310  EB 24				jmp		L$261
1312				L$258:
1312  83 F9 06				cmp		cx,0x0006
1315  75 0E				jne		L$260
1317  80 7C 0A 2C			cmp		byte ptr 0xa[si],0x2c
131B  75 06				jne		L$259
131D  36 FF 36 05 03			push		word ptr ss:[0x305]
1322  41				inc		cx
1323				L$259:
1323  EB 11				jmp		L$261
1325				L$260:
1325  83 F9 09				cmp		cx,0x0009
1328  75 0C				jne		L$261
132A  80 7C 0A 2C			cmp		byte ptr 0xa[si],0x2c
132E  75 06				jne		L$261
1330  36 FF 36 05 03			push		word ptr ss:[0x305]
1335  41				inc		cx
1336				L$261:
1336  93				xchg		ax,bx
1337  33 D2				xor		dx,dx
1339  EB A2				jmp		L$253
133B				L$262:
133B  33 D2				xor		dx,dx
133D  33 C0				xor		ax,ax
133F  36 FF 36 F8 02			push		word ptr ss:[0x2f8]
1344  C3				ret
1345				L$263:
1345  33 D2				xor		dx,dx
1347  0B C9				or		cx,cx
1349  74 21				je		L$267
134B  B4 25				mov		ah,0x25
134D  B0 00				mov		al,0x00
134F				L$264:
134F  26 38 25				cmp		es:[di],ah
1352  75 0A				jne		L$265
1354  26 38 65 01			cmp		es:0x1[di],ah
1358  74 04				je		L$265
135A  3A C4				cmp		al,ah
135C  75 0E				jne		L$267
135E				L$265:
135E  26 8A 05				mov		al,es:[di]
1361  E8 4B FF				call		L$248
1364  73 01				jae		L$266
1366  47				inc		di
1367				L$266:
1367  47				inc		di
1368  42				inc		dx
1369  49				dec		cx
136A  75 E3				jne		L$264
136C				L$267:
136C  56				push		si
136D  87 CA				xchg		dx,cx
136F  0B ED				or		bp,bp
1371  74 35				je		L$273
1373  4D				dec		bp
1374  36 83 3E FA 02 00			cmp		word ptr ss:[0x2fa],0x0000
137A  75 2C				jne		L$273
137C				L$268:
137C  8A 44 06				mov		al,0x6[si]
137F  04 30				add		al,0x30
1381  26 3A 45 01			cmp		al,es:0x1[di]
1385  75 02				jne		L$269
1387  EB 1F				jmp		L$273
1389				L$269:
1389  3C 30				cmp		al,0x30
138B  75 04				jne		L$270
138D  0B D2				or		dx,dx
138F  74 04				je		L$271
1391				L$270:
1391  03 34				add		si,[si]
1393  EB E7				jmp		L$268
1395				L$271:
1395  36 80 3E F7 02 FF			cmp		byte ptr ss:[0x2f7],0xff
139B  75 08				jne		L$272
139D  42				inc		dx
139E  42				inc		dx
139F  49				dec		cx
13A0  49				dec		cx
13A1  4F				dec		di
13A2  4F				dec		di
13A3  EB 03				jmp		L$273
13A5				L$272:
13A5  BA FF FF				mov		dx,0xffff
13A8				L$273:
13A8  57				push		di
13A9  2B F9				sub		di,cx
13AB  E8 42 FE				call		L$229
13AE  5F				pop		di
13AF  59				pop		cx
13B0  73 03				jae		L$274
13B2  E9 8E 00				jmp		L$290
13B5				L$274:
13B5  51				push		cx
13B6  8B CA				mov		cx,dx
13B8  80 7C 06 00			cmp		byte ptr 0x6[si],0x00
13BC  74 0D				je		L$277
13BE  0B C9				or		cx,cx
13C0  74 06				je		L$275
13C2  49				dec		cx
13C3  49				dec		cx
13C4  47				inc		di
13C5  47				inc		di
13C6  EB 01				jmp		L$276
13C8				L$275:
13C8  5E				pop		si
13C9				L$276:
13C9  EB 10				jmp		L$280
13CB				L$277:
13CB  0B C9				or		cx,cx
13CD  75 03				jne		L$278
13CF  5E				pop		si
13D0  EB 09				jmp		L$280
13D2				L$278:
13D2  83 F9 FF				cmp		cx,0xffff
13D5  75 02				jne		L$279
13D7  33 C9				xor		cx,cx
13D9				L$279:
13D9  0B FF				or		di,di
13DB				L$280:
13DB  74 66				je		L$290
13DD  55				push		bp
13DE  57				push		di
13DF  06				push		es
13E0  51				push		cx
13E1  33 C9				xor		cx,cx
13E3  36 83 3E FA 02 00			cmp		word ptr ss:[0x2fa],0x0000
13E9  75 3B				jne		L$286
13EB  F6 44 07 0F			test		byte ptr 0x7[si],0x0f
13EF  75 08				jne		L$281
13F1  C4 7C 02				les		di,0x2[si]
13F4  E8 67 01				call		L$314
13F7  EB 28				jmp		L$285
13F9				L$281:
13F9  F6 44 07 0D			test		byte ptr 0x7[si],0x0d
13FD  74 0C				je		L$282
13FF  F6 44 07 0E			test		byte ptr 0x7[si],0x0e
1403  74 06				je		L$282
1405  F6 44 07 0C			test		byte ptr 0x7[si],0x0c
1409  75 08				jne		L$283
140B				L$282:
140B  C4 7C 02				les		di,0x2[si]
140E  E8 75 01				call		L$319
1411  EB 0E				jmp		L$285
1413				L$283:
1413  F6 44 07 0B			test		byte ptr 0x7[si],0x0b
1417  75 05				jne		L$284
1419  E8 0A 02				call		L$332
141C  EB 03				jmp		L$285
141E				L$284:
141E  E8 D9 02				call		L$342
1421				L$285:
1421  E8 58 00				call		L$294
1424  EB 03				jmp		L$287
1426				L$286:
1426  E8 22 00				call		L$291
1429				L$287:
1429  72 07				jb		L$288
142B  59				pop		cx
142C  07				pop		es
142D  5F				pop		di
142E  5D				pop		bp
142F  5E				pop		si
1430  EB 04				jmp		L$289
1432				L$288:
1432  83 C4 0A				add		sp,0x000a
1435  F9				stc
1436				L$289:
1436  36 83 3E FA 02 00			cmp		word ptr ss:[0x2fa],0x0000
143C  75 05				jne		L$290
143E  72 03				jb		L$290
1440  E9 02 FF				jmp		L$263
1443				L$290:
1443  36 C7 06 FA 02 00 00		mov		word ptr ss:[0x2fa],0x0000
144A  C3				ret
144B				L$291:
144B  33 D2				xor		dx,dx
144D  36 A1 FA 02			mov		ax,ss:[0x2fa]
1451  36 C7 06 FC 02 0A 00		mov		word ptr ss:[0x2fc],0x000a
1458  E8 79 FE				call		L$252
145B				L$292:
145B  58				pop		ax
145C  36 88 87 FE 02			mov		ss:0x2fe[bx],al
1461  43				inc		bx
1462  83 FB 40				cmp		bx,0x0040
1465  75 03				jne		L$293
1467  E8 D8 00				call		L$311
146A				L$293:
146A  FE C9				dec		cl
146C  75 ED				jne		L$292
146E  B8 0D 0A				mov		ax,0x0a0d
1471  36 89 87 FE 02			mov		ss:0x2fe[bx],ax
1476  43				inc		bx
1477  43				inc		bx
1478  E8 C7 00				call		L$311
147B  C3				ret
147C				L$294:
147C  33 DB				xor		bx,bx
147E  80 7C 06 00			cmp		byte ptr 0x6[si],0x00
1482  75 13				jne		L$295
1484  36 C7 87 FE 02 20 2D		mov		word ptr ss:0x2fe[bx],0x2d20
148B  43				inc		bx
148C  43				inc		bx
148D  36 C6 87 FE 02 20			mov		byte ptr ss:0x2fe[bx],0x20
1493  43				inc		bx
1494  E8 AB 00				call		L$311
1497				L$295:
1497  5D				pop		bp
1498  33 DB				xor		bx,bx
149A  33 D2				xor		dx,dx
149C  36 88 0E F4 02			mov		ss:[0x2f4],cl
14A1  8A 44 09				mov		al,0x9[si]
14A4  3A C1				cmp		al,cl
14A6  76 1F				jbe		L$298
14A8  2A C1				sub		al,cl
14AA  8A F0				mov		dh,al
14AC  F6 44 07 80			test		byte ptr 0x7[si],0x80
14B0  74 15				je		L$298
14B2				L$296:
14B2  8A 44 0A				mov		al,0xa[si]
14B5  36 88 87 FE 02			mov		ss:0x2fe[bx],al
14BA  43				inc		bx
14BB  83 FB 40				cmp		bx,0x0040
14BE  75 03				jne		L$297
14C0  E8 7F 00				call		L$311
14C3				L$297:
14C3  FE CE				dec		dh
14C5  75 EB				jne		L$296
14C7				L$298:
14C7  80 7C 08 00			cmp		byte ptr 0x8[si],0x00
14CB  74 0D				je		L$299
14CD  38 4C 08				cmp		0x8[si],cl
14D0  73 08				jae		L$299
14D2  2A 4C 08				sub		cl,0x8[si]
14D5  8A D1				mov		dl,cl
14D7  8A 4C 08				mov		cl,0x8[si]
14DA				L$299:
14DA  0B C9				or		cx,cx
14DC  74 25				je		L$304
14DE				L$300:
14DE  F6 44 07 0F			test		byte ptr 0x7[si],0x0f
14E2  75 0C				jne		L$301
14E4  F6 44 07 10			test		byte ptr 0x7[si],0x10
14E8  74 06				je		L$301
14EA  26 8A 05				mov		al,es:[di]
14ED  47				inc		di
14EE  EB 01				jmp		L$302
14F0				L$301:
14F0  58				pop		ax
14F1				L$302:
14F1  36 88 87 FE 02			mov		ss:0x2fe[bx],al
14F6  43				inc		bx
14F7  83 FB 40				cmp		bx,0x0040
14FA  75 03				jne		L$303
14FC  E8 43 00				call		L$311
14FF				L$303:
14FF  FE C9				dec		cl
1501  75 DB				jne		L$300
1503				L$304:
1503  F6 44 07 80			test		byte ptr 0x7[si],0x80
1507  75 19				jne		L$307
1509  0A F6				or		dh,dh
150B  74 15				je		L$307
150D				L$305:
150D  8A 44 0A				mov		al,0xa[si]
1510  36 88 87 FE 02			mov		ss:0x2fe[bx],al
1515  43				inc		bx
1516  83 FB 40				cmp		bx,0x0040
1519  75 03				jne		L$306
151B  E8 24 00				call		L$311
151E				L$306:
151E  FE CE				dec		dh
1520  75 EB				jne		L$305
1522				L$307:
1522  F6 44 07 0F			test		byte ptr 0x7[si],0x0f
1526  75 08				jne		L$308
1528  F6 44 07 10			test		byte ptr 0x7[si],0x10
152C  74 02				je		L$308
152E  EB 0D				jmp		L$310
1530				L$308:
1530  0A D2				or		dl,dl
1532  74 09				je		L$310
1534				L$309:
1534  36 8F 06 F8 02			pop		word ptr ss:[0x2f8]
1539  FE CA				dec		dl
153B  75 F7				jne		L$309
153D				L$310:
153D  E8 02 00				call		L$311
1540  55				push		bp
1541  C3				ret
1542				L$311:
1542  51				push		cx
1543  06				push		es
1544  57				push		di
1545  1E				push		ds
1546  07				pop		es
1547  8B CB				mov		cx,bx
1549  33 DB				xor		bx,bx
154B  8D 3E FE 02			lea		di,L$40
154F  E8 9E FC				call		L$229
1552  72 05				jb		L$312
1554  5F				pop		di
1555  07				pop		es
1556  59				pop		cx
1557  EB 04				jmp		L$313
1559				L$312:
1559  83 C4 06				add		sp,0x0006
155C  F9				stc
155D				L$313:
155D  C3				ret
155E				L$314:
155E  5D				pop		bp
155F  F6 44 07 30			test		byte ptr 0x7[si],0x30
1563  75 12				jne		L$316
1565  26 8A 05				mov		al,es:[di]
1568  50				push		ax
1569  41				inc		cx
156A  E8 42 FD				call		L$248
156D  73 06				jae		L$315
156F  26 8A 45 01			mov		al,es:0x1[di]
1573  50				push		ax
1574  F8				clc
1575				L$315:
1575  EB 0D				jmp		L$318
1577				L$316:
1577  26 8A 05				mov		al,es:[di]
157A  0A C0				or		al,al
157C  74 04				je		L$317
157E  47				inc		di
157F  41				inc		cx
1580  EB F5				jmp		L$316
1582				L$317:
1582  2B F9				sub		di,cx
1584				L$318:
1584  55				push		bp
1585  C3				ret
1586				L$319:
1586  5D				pop		bp
1587  33 D2				xor		dx,dx
1589  33 C0				xor		ax,ax
158B  36 C7 06 FC 02 10 00		mov		word ptr ss:[0x2fc],0x0010
1592  33 DB				xor		bx,bx
1594  F6 44 07 20			test		byte ptr 0x7[si],0x20
1598  75 26				jne		L$323
159A  26 8A 05				mov		al,es:[di]
159D  F6 44 07 0D			test		byte ptr 0x7[si],0x0d
15A1  75 0E				jne		L$321
15A3  A8 80				test		al,0x80
15A5  74 03				je		L$320
15A7  43				inc		bx
15A8  24 7F				and		al,0x7f
15AA				L$320:
15AA  36 C7 06 FC 02 0A 00		mov		word ptr ss:[0x2fc],0x000a
15B1				L$321:
15B1  F6 44 07 0E			test		byte ptr 0x7[si],0x0e
15B5  75 07				jne		L$322
15B7  36 C7 06 FC 02 0A 00		mov		word ptr ss:[0x2fc],0x000a
15BE				L$322:
15BE  EB 58				jmp		L$330
15C0				L$323:
15C0  F6 44 07 10			test		byte ptr 0x7[si],0x10
15C4  75 28				jne		L$327
15C6  26 8B 05				mov		ax,es:[di]
15C9  F6 44 07 0D			test		byte ptr 0x7[si],0x0d
15CD  75 10				jne		L$325
15CF  F6 C4 80				test		ah,0x80
15D2  74 04				je		L$324
15D4  43				inc		bx
15D5  80 E4 7F				and		ah,0x7f
15D8				L$324:
15D8  36 C7 06 FC 02 0A 00		mov		word ptr ss:[0x2fc],0x000a
15DF				L$325:
15DF  F6 44 07 0E			test		byte ptr 0x7[si],0x0e
15E3  75 07				jne		L$326
15E5  36 C7 06 FC 02 0A 00		mov		word ptr ss:[0x2fc],0x000a
15EC				L$326:
15EC  EB 2A				jmp		L$330
15EE				L$327:
15EE  26 8B 05				mov		ax,es:[di]
15F1  26 8B 55 02			mov		dx,es:0x2[di]
15F5  F6 44 07 0D			test		byte ptr 0x7[si],0x0d
15F9  75 10				jne		L$329
15FB  F6 C6 80				test		dh,0x80
15FE  74 04				je		L$328
1600  43				inc		bx
1601  80 E6 7F				and		dh,0x7f
1604				L$328:
1604  36 C7 06 FC 02 0A 00		mov		word ptr ss:[0x2fc],0x000a
160B				L$329:
160B  F6 44 07 0E			test		byte ptr 0x7[si],0x0e
160F  75 07				jne		L$330
1611  36 C7 06 FC 02 0A 00		mov		word ptr ss:[0x2fc],0x000a
1618				L$330:
1618  E8 B9 FC				call		L$252
161B  0B DB				or		bx,bx
161D  74 05				je		L$331
161F  33 D2				xor		dx,dx
1621  B2 2D				mov		dl,0x2d
1623  52				push		dx
1624				L$331:
1624  55				push		bp
1625  C3				ret
1626				L$332:
1626  5D				pop		bp
1627  36 C7 06 FC 02 0A 00		mov		word ptr ss:[0x2fc],0x000a
162E  E8 7C 00				call		L$336
1631  33 D2				xor		dx,dx
1633  33 C0				xor		ax,ax
1635  36 83 3E FE 02 00			cmp		word ptr ss:[0x2fe],0x0000
163B  75 20				jne		L$333
163D  E8 87 00				call		L$338
1640  E8 96 00				call		L$340
1643  36 FF 36 09 03			push		word ptr ss:[0x309]
1648  41				inc		cx
1649  33 C0				xor		ax,ax
164B  8A 44 05				mov		al,0x5[si]
164E  E8 88 00				call		L$340
1651  36 FF 36 09 03			push		word ptr ss:[0x309]
1656  41				inc		cx
1657  8A 44 04				mov		al,0x4[si]
165A  E8 7C 00				call		L$340
165D				L$333:
165D  36 83 3E FE 02 01			cmp		word ptr ss:[0x2fe],0x0001
1663  75 20				jne		L$334
1665  E8 5F 00				call		L$338
1668  E8 6E 00				call		L$340
166B  36 FF 36 09 03			push		word ptr ss:[0x309]
1670  41				inc		cx
1671  33 C0				xor		ax,ax
1673  8A 44 04				mov		al,0x4[si]
1676  E8 60 00				call		L$340
1679  36 FF 36 09 03			push		word ptr ss:[0x309]
167E  41				inc		cx
167F  8A 44 05				mov		al,0x5[si]
1682  E8 54 00				call		L$340
1685				L$334:
1685  36 83 3E FE 02 02			cmp		word ptr ss:[0x2fe],0x0002
168B  75 1E				jne		L$335
168D  8A 44 05				mov		al,0x5[si]
1690  E8 46 00				call		L$340
1693  36 FF 36 09 03			push		word ptr ss:[0x309]
1698  41				inc		cx
1699  8A 44 04				mov		al,0x4[si]
169C  E8 3A 00				call		L$340
169F  36 FF 36 09 03			push		word ptr ss:[0x309]
16A4  41				inc		cx
16A5  E8 1F 00				call		L$338
16A8  E8 2E 00				call		L$340
16AB				L$335:
16AB  55				push		bp
16AC  C3				ret
16AD				L$336:
16AD  B4 38				mov		ah,0x38
16AF  B0 00				mov		al,0x00
16B1  8D 16 FE 02			lea		dx,L$40
16B5  CD 21				int		0x21
16B7  73 0D				jae		L$337
16B9  36 C7 06 FE 02 00 00		mov		word ptr ss:[0x2fe],0x0000
16C0  36 C6 06 09 03 2D			mov		byte ptr ss:[0x309],0x2d
16C6				L$337:
16C6  C3				ret
16C7				L$338:
16C7  8B 44 02				mov		ax,0x2[si]
16CA  F6 44 07 10			test		byte ptr 0x7[si],0x10
16CE  75 08				jne		L$339
16D0  3D 63 00				cmp		ax,0x0063
16D3  76 03				jbe		L$339
16D5  B8 63 00				mov		ax,0x0063
16D8				L$339:
16D8  C3				ret
16D9				L$340:
16D9  36 8F 06 FE 02			pop		word ptr ss:[0x2fe]
16DE  36 88 0E F4 02			mov		ss:[0x2f4],cl
16E3  E8 EE FB				call		L$252
16E6  49				dec		cx
16E7  36 3A 0E F4 02			cmp		cl,ss:[0x2f4]
16EC  75 05				jne		L$341
16EE  B8 30 00				mov		ax,0x0030
16F1  50				push		ax
16F2  41				inc		cx
16F3				L$341:
16F3  41				inc		cx
16F4  36 FF 36 FE 02			push		word ptr ss:[0x2fe]
16F9  C3				ret
16FA				L$342:
16FA  5D				pop		bp
16FB  36 C7 06 FC 02 0A 00		mov		word ptr ss:[0x2fc],0x000a
1702  E8 7F 00				call		L$351
1705  F6 44 07 01			test		byte ptr 0x7[si],0x01
1709  74 1D				je		L$345
170B  36 80 3E 0F 03 00			cmp		byte ptr ss:[0x30f],0x00
1711  75 15				jne		L$345
1713  8A 44 02				mov		al,0x2[si]
1716  3C 0C				cmp		al,0x0c
1718  7C 04				jl		L$343
171A  3C 17				cmp		al,0x17
171C  7E 06				jle		L$344
171E				L$343:
171E  B0 61				mov		al,0x61
1720  50				push		ax
1721  41				inc		cx
1722  EB 04				jmp		L$345
1724				L$344:
1724  B0 70				mov		al,0x70
1726  50				push		ax
1727  41				inc		cx
1728				L$345:
1728  33 C0				xor		ax,ax
172A  33 D2				xor		dx,dx
172C  F6 44 07 20			test		byte ptr 0x7[si],0x20
1730  74 0C				je		L$346
1732  8A 44 05				mov		al,0x5[si]
1735  E8 6C 00				call		L$353
1738  36 FF 36 07 03			push		word ptr ss:[0x307]
173D  41				inc		cx
173E				L$346:
173E  F6 44 07 20			test		byte ptr 0x7[si],0x20
1742  75 06				jne		L$347
1744  F6 44 07 10			test		byte ptr 0x7[si],0x10
1748  74 0C				je		L$348
174A				L$347:
174A  8A 44 04				mov		al,0x4[si]
174D  E8 54 00				call		L$353
1750  36 FF 36 0B 03			push		word ptr ss:[0x30b]
1755  41				inc		cx
1756				L$348:
1756  8A 44 03				mov		al,0x3[si]
1759  E8 48 00				call		L$353
175C  36 FF 36 0B 03			push		word ptr ss:[0x30b]
1761  41				inc		cx
1762  8A 44 02				mov		al,0x2[si]
1765  F6 44 07 01			test		byte ptr 0x7[si],0x01
1769  74 14				je		L$350
176B  36 80 3E 0F 03 00			cmp		byte ptr ss:[0x30f],0x00
1771  75 0C				jne		L$350
1773  3C 0D				cmp		al,0x0d
1775  7C 02				jl		L$349
1777  2C 0C				sub		al,0x0c
1779				L$349:
1779  3C 00				cmp		al,0x00
177B  75 02				jne		L$350
177D  B0 0C				mov		al,0x0c
177F				L$350:
177F  E8 52 FB				call		L$252
1782  55				push		bp
1783  C3				ret
1784				L$351:
1784  B4 38				mov		ah,0x38
1786  B0 00				mov		al,0x00
1788  8D 16 FE 02			lea		dx,L$40
178C  CD 21				int		0x21
178E  73 13				jae		L$352
1790  36 C7 06 0F 03 01 00		mov		word ptr ss:[0x30f],0x0001
1797  36 C6 06 0B 03 3A			mov		byte ptr ss:[0x30b],0x3a
179D  36 C6 06 07 03 2E			mov		byte ptr ss:[0x307],0x2e
17A3				L$352:
17A3  C3				ret
17A4				L$353:
17A4  36 8F 06 FE 02			pop		word ptr ss:[0x2fe]
17A9  36 88 0E F4 02			mov		ss:[0x2f4],cl
17AE  E8 23 FB				call		L$252
17B1  49				dec		cx
17B2  36 3A 0E F4 02			cmp		cl,ss:[0x2f4]
17B7  75 05				jne		L$354
17B9  B8 30 00				mov		ax,0x0030
17BC  50				push		ax
17BD  41				inc		cx
17BE				L$354:
17BE  41				inc		cx
17BF  36 FF 36 FE 02			push		word ptr ss:[0x2fe]
17C4  C3				ret
17C5				L$355:
17C5  51				push		cx
17C6  52				push		dx
17C7  1E				push		ds
17C8  80 FA C0				cmp		dl,0xc0
17CB  76 08				jbe		L$356
17CD  8A C2				mov		al,dl
17CF  24 0F				and		al,0x0f
17D1  B4 0C				mov		ah,0x0c
17D3  EB 02				jmp		L$357
17D5				L$356:
17D5  8A E2				mov		ah,dl
17D7				L$357:
17D7  06				push		es
17D8  1F				pop		ds
17D9  8B D7				mov		dx,di
17DB  CD 21				int		0x21
17DD  1F				pop		ds
17DE  80 FA 0A				cmp		dl,0x0a
17E1  F8				clc
17E2  74 12				je		L$359
17E4  E8 C8 FA				call		L$248
17E7  73 0B				jae		L$358
17E9  8A C8				mov		cl,al
17EB  8A E2				mov		ah,dl
17ED  CD 21				int		0x21
17EF  8A E1				mov		ah,cl
17F1  F8				clc
17F2  EB 02				jmp		L$359
17F4				L$358:
17F4  B4 00				mov		ah,0x00
17F6				L$359:
17F6  72 04				jb		L$360
17F8  5A				pop		dx
17F9  59				pop		cx
17FA  EB 04				jmp		L$361
17FC				L$360:
17FC  83 C4 04				add		sp,0x0004
17FF  F9				stc
1800				L$361:
1800  C3				ret
1801				L$362:
1801  FF 04				inc		word ptr [si]
1803  00 03				add		[bp+di],al
1805  01 00				add		[bx+si],ax
1807  0C 00				or		al,0x00
1809  02 00				add		al,[bx+si]
180B  20 00				and		[bx+si],al
180D  0C 00				or		al,0x00
180F  32 00				xor		al,[bx+si]
1811  17				pop		ss
1812  49				dec		cx
1813  6E				outsb
1814  63 6F 72				arpl		0x72[bx],bp
1817  72 65				jb		L$368
1819  63 74 20				arpl		0x20[si],si
181C  44				inc		sp
181D  4F				dec		di
181E  53				push		bx
181F  20 76 65				and		0x65[bp],dh
1822  72 73				jb		L$372
1824  69 6F 6E 0D 0A			imul		bp,0x6e[bx],0x0a0d
1829  15 44 69				adc		ax,0x6944
182C  72 65				jb		L$371
182E  63 74 6F				arpl		0x6f[si],si
1831  72 79				jb		L$376
1833  20 6E 6F				and		0x6f[bp],ch
1836  74 20				je		L$364
1838  65 6D				ins		[di],dx
183A  70 74				jo		L$377
183C  79 0D				jns		L$363
183E  0A 1B				or		bl,[bp+di]
1840  43				inc		bx
1841  61				popa
1842  6E				outsb
1843  6E				outsb
1844  6F				outsw
1845  74 20				je		L$367
1847  25 31 20				and		ax,0x2031
184A  61				popa
184B				L$363:
184B  20 6E 65				and		0x65[bp],ch
184E  74 77				je		L$379
1850  6F				outsw
1851  72 6B				jb		L$378
1853  20 64 72				and		0x72[si],ah
1856  69 76                                           iv
1858				L$364:
1858  65 0D 0A                                        e..
185B				L$365:
185B  0E				push		cs
185C  07				pop		es
185D  8D 3E 01 18			lea		di,L$362
1861  83 C1 60				add		cx,0x0060
1864  CB				retf
1865				L$366:
1865  01 04				add		[si],ax
1867				L$367:
1867  00 01				add		[bx+di],al
1869  FF				????
186A  FF 04				inc		word ptr [si]
186C  00 11				add		[bx+di],dl
186E  45				inc		bp
186F  78 74				js		L$380
1871  65 6E				outs		dx,byte ptr gs:[si]
1873  64 65 64 20 45 72			and
1879  72 6F				jb		L$381
187B  72 20				jb		L$373
187D  25                                              %
187E				L$368:
187E  31                                              1
187F				L$369:
187F  0E				push		cs
1880  07				pop		es
1881  8D 3E 65 18			lea		di,L$366
1885  83 C1 20				add		cx,0x0020
1888  CB				retf
1889				L$370:
1889  02 04				add		al,[si]
188B  00 01				add		[bx+di],al
188D  FF				????
188E  FF 04				inc		word ptr [si]
1890  00 0E                                           ..
1892  50 61 72 73                                     DD	ds:[0x6150]
1893				L$371:
1893  61				popa
1894  72 73				jb		L$382
1896  65                                              e
1897				L$372:
1897  20 45 72				and		0x72[di],al
189A  72 6F				jb		L$383
189C  72                                              r
189D				L$373:
189D  20 25                                           DW		     0x189d
				; The label referred to here is an undefined location
L$378
189F  31                                              1
18A0				L$374:
18A0  0E				push		cs
18A1  07				pop		es
18A2  8D 3E 89 18			lea		di,L$370
18A6  83 C1 1D				add		cx,0x001d
18A9  CB				retf
18AA				L$375:
18AA  55				push		bp
18AB  8B                                              .
18AC				L$376:
18AC  EC				in		al,dx
18AD  57				push		di
18AE  56				push		si
18AF  8B                                              .
18B0				L$377:
18B0  7E 04				jle		0x000018b6
18B2  8B 45 0A				mov		ax,0xa[di]
18B5  50				push		ax
18B6  8B 05				mov		ax,[di]
18B8  8B 5D 02				mov		bx,0x2[di]
18BB  8B 4D 04				mov		cx,0x4[di]
18BE				L$378:
18BE  8B 55 06				mov		dx,0x6[di]
18C1  8B 75 08				mov		si,0x8[di]
18C4  5F				pop		di
18C5  55				push		bp
18C6  9A                                              .
18C7				L$379:
18C7  38 0F                                           DW	L$167
18C9  00 00				add		[bx+si],al
18CB  5D				pop		bp
18CC  57				push		di
18CD  8B 7E 06				mov		di,0x6[bp]
18D0  89 05				mov		[di],ax
18D2  89 5D 02				mov		0x2[di],bx
18D5  89 4D 04				mov		0x4[di],cx
18D8  89 55 06				mov		0x6[di],dx
18DB  89 75 08				mov		0x8[di],si
18DE  9F				lahf
18DF  8A C4				mov		al,ah
18E1  89 45 0C				mov		0xc[di],ax
18E4  58				pop		ax
18E5				L$380:
18E5  89 45 0A				mov		0xa[di],ax
18E8  5E				pop		si
18E9  5F				pop		di
18EA				L$381:
18EA  8B E5				mov		sp,bp
18EC  5D				pop		bp
18ED  C3				ret
18EE  55				push		bp
18EF  8B EC				mov		bp,sp
18F1  57				push		di
18F2  56				push		si
18F3  8B 7E 04				mov		di,0x4[bp]
18F6  8B 45 0A				mov		ax,0xa[di]
18F9  50				push		ax
18FA  8B 05				mov		ax,[di]
18FC  8B 5D 02				mov		bx,0x2[di]
18FF  8B 4D 04				mov		cx,0x4[di]
1902  8B 55 06				mov		dx,0x6[di]
1905  8B 75 08				mov		si,0x8[di]
1908  5F				pop		di
1909				L$382:
1909  55				push		bp
190A  9A                                              .
190B				L$383:
190B  50 10                                           DW	L$179
190D  00 00				add		[bx+si],al
190F  5D				pop		bp
1910  57				push		di
1911  8B 7E 06				mov		di,0x6[bp]
1914  89 05				mov		[di],ax
1916  89 5D 02				mov		0x2[di],bx
1919  89 4D 04				mov		0x4[di],cx
191C  89 55 06				mov		0x6[di],dx
191F  89 75 08				mov		0x8[di],si
1922  9F				lahf
1923  8A C4				mov		al,ah
1925  89 45 0C				mov		0xc[di],ax
1928  58				pop		ax
1929  89 45 0A				mov		0xa[di],ax
192C  5E				pop		si
192D  5F				pop		di
192E  8B E5				mov		sp,bp
1930  5D				pop		bp
1931  C3				ret
1932				L$384:
1932  55				push		bp
1933  8B EC				mov		bp,sp
1935  57				push		di
1936  56				push		si
1937  8B 7E 04				mov		di,0x4[bp]
193A  8B 45 0A				mov		ax,0xa[di]
193D  50				push		ax
193E  8B 05				mov		ax,[di]
1940  8B 5D 02				mov		bx,0x2[di]
1943  8B 4D 04				mov		cx,0x4[di]
1946  8B 55 06				mov		dx,0x6[di]
1949  8B 75 08				mov		si,0x8[di]
194C  5F				pop		di
194D  55				push		bp
194E  9A 9E 11 00 00			call		L$219
1953  5D				pop		bp
1954  57				push		di
1955  8B 7E 06				mov		di,0x6[bp]
1958  89 05				mov		[di],ax
195A  89 5D 02				mov		0x2[di],bx
195D  89 4D 04				mov		0x4[di],cx
1960  89 55 06				mov		0x6[di],dx
1963  89 75 08				mov		0x8[di],si
1966  9F				lahf
1967  8A C4				mov		al,ah
1969  89 45 0C				mov		0xc[di],ax
196C  58				pop		ax
196D  89 45 0A				mov		0xa[di],ax
1970  5E				pop		si
1971  5F				pop		di
1972  8B E5				mov		sp,bp
1974  5D				pop		bp
1975  C3				ret
1976				L$385:
1976  C7 06 AB 03 00 00			mov		word ptr ds:[0x3ab],0x0000
197C  FC				cld
197D  89 0E 9E 03			mov		ds:[0x39e],cx
1981  C7 06 A0 03 00 00			mov		word ptr ds:[0x3a0],0x0000
1987  C7 06 B3 03 00 00			mov		word ptr ds:[0x3b3],0x0000
198D  C7 06 A4 03 00 00			mov		word ptr ds:[0x3a4],0x0000
1993  E8 14 06				call		L$511
1996  73 13				jae		L$387
1998  B8 FF FF				mov		ax,0xffff
199B  53				push		bx
199C  26 8B 1D				mov		bx,es:[di]
199F  26 3A 0F				cmp		cl,es:[bx]
19A2  73 03				jae		L$386
19A4  B8 02 00				mov		ax,0x0002
19A7				L$386:
19A7  5B				pop		bx
19A8  E9 07 01				jmp		L$402
19AB				L$387:
19AB  89 36 AD 03			mov		ds:[0x3ad],si
19AF  53				push		bx
19B0  57				push		di
19B1  55				push		bp
19B2  8D 1E B5 03			lea		bx,L$46
19B6  F6 06 AC 03 20			test		byte ptr ds:[0x3ac],0x20
19BB  75 3E				jne		L$393
19BD				L$388:
19BD  AC				lodsb
19BE  E8 9F 06				call		L$527
19C1  72 37				jb		L$392
19C3  E8 08 06				call		L$516
19C6  74 32				je		L$392
19C8  E8 39 06				call		L$520
19CB  75 16				jne		L$390
19CD  F6 06 AC 03 20			test		byte ptr ds:[0x3ac],0x20
19D2  75 05				jne		L$389
19D4  E8 D3 05				call		L$511
19D7  EB 22				jmp		L$393
19D9				L$389:
19D9  F6 06 AC 03 41			test		byte ptr ds:[0x3ac],0x41
19DE  74 1B				je		L$393
19E0  4E				dec		si
19E1  EB 18				jmp		L$393
19E3				L$390:
19E3  88 07				mov		[bx],al
19E5  3C 3D				cmp		al,0x3d
19E7  75 05				jne		L$391
19E9  80 0E AC 03 01			or		byte ptr ds:[0x3ac],0x01
19EE				L$391:
19EE  43				inc		bx
19EF  E8 9A 06				call		L$533
19F2  73 C9				jae		L$388
19F4  AC				lodsb
19F5  88 07				mov		[bx],al
19F7  43				inc		bx
19F8  EB C3				jmp		L$388
19FA				L$392:
19FA  4E				dec		si
19FB				L$393:
19FB  89 36 A2 03			mov		ds:[0x3a2],si
19FF  C6 07 00				mov		byte ptr [bx],0x00
1A02  89 1E B1 03			mov		ds:[0x3b1],bx
1A06  26 8B 1D				mov		bx,es:[di]
1A09  8D 36 B5 03			lea		si,L$46
1A0D  80 3C 2F				cmp		byte ptr [si],0x2f
1A10  74 2C				je		L$395
1A12  F6 06 AC 03 01			test		byte ptr ds:[0x3ac],0x01
1A17  75 50				jne		L$398
1A19  26 8A 47 01			mov		al,es:0x1[bx]
1A1D  32 E4				xor		ah,ah
1A1F  39 06 9E 03			cmp		ds:[0x39e],ax
1A23  73 11				jae		L$394
1A25  A1 9E 03				mov		ax,ds:[0x39e]
1A28  D1 E0				shl		ax,0x01
1A2A  43				inc		bx
1A2B  43				inc		bx
1A2C  03 D8				add		bx,ax
1A2E  26 8B 1F				mov		bx,es:[bx]
1A31  E8 80 00				call		L$403
1A34  EB 66				jmp		L$401
1A36				L$394:
1A36  C7 06 A0 03 01 00			mov		word ptr ds:[0x3a0],0x0001
1A3C  EB 5E				jmp		L$401
1A3E				L$395:
1A3E  26 8A 47 01			mov		al,es:0x1[bx]
1A42  32 E4				xor		ah,ah
1A44  40				inc		ax
1A45  D1 E0				shl		ax,0x01
1A47  03 D8				add		bx,ax
1A49  26 8A 0F				mov		cl,es:[bx]
1A4C  32 ED				xor		ch,ch
1A4E  0B C9				or		cx,cx
1A50  74 0F				je		L$397
1A52  43				inc		bx
1A53				L$396:
1A53  53				push		bx
1A54  26 8B 1F				mov		bx,es:[bx]
1A57  E8 BB 00				call		L$416
1A5A  5B				pop		bx
1A5B  73 3F				jae		L$401
1A5D  43				inc		bx
1A5E  43				inc		bx
1A5F  E2 F2				loop		L$396
1A61				L$397:
1A61  C7 06 A0 03 03 00			mov		word ptr ds:[0x3a0],0x0003
1A67  EB 33				jmp		L$401
1A69				L$398:
1A69  26 8A 47 01			mov		al,es:0x1[bx]
1A6D  32 E4				xor		ah,ah
1A6F  40				inc		ax
1A70  D1 E0				shl		ax,0x01
1A72  03 D8				add		bx,ax
1A74  26 8A 07				mov		al,es:[bx]
1A77  32 E4				xor		ah,ah
1A79  D1 E0				shl		ax,0x01
1A7B  40				inc		ax
1A7C  03 D8				add		bx,ax
1A7E  26 8A 0F				mov		cl,es:[bx]
1A81  32 ED				xor		ch,ch
1A83  0B C9				or		cx,cx
1A85  74 0F				je		L$400
1A87  43				inc		bx
1A88				L$399:
1A88  53				push		bx
1A89  26 8B 1F				mov		bx,es:[bx]
1A8C  E8 54 00				call		L$408
1A8F  5B				pop		bx
1A90  73 0A				jae		L$401
1A92  43				inc		bx
1A93  43				inc		bx
1A94  E2 F2				loop		L$399
1A96				L$400:
1A96  C7 06 A0 03 04 00			mov		word ptr ds:[0x3a0],0x0004
1A9C				L$401:
1A9C  5D				pop		bp
1A9D  5F				pop		di
1A9E  5B				pop		bx
1A9F  8B 0E 9E 03			mov		cx,ds:[0x39e]
1AA3  A1 A0 03				mov		ax,ds:[0x3a0]
1AA6  8B 36 A2 03			mov		si,ds:[0x3a2]
1AAA  8B 16 A4 03			mov		dx,ds:[0x3a4]
1AAE  8A 1E A6 03			mov		bl,ds:[0x3a6]
1AB2				L$402:
1AB2  F8				clc
1AB3  C3				ret
1AB4				L$403:
1AB4  50				push		ax
1AB5  26 8B 07				mov		ax,es:[bx]
1AB8  A9 02 00				test		ax,0x0002
1ABB  75 04				jne		L$404
1ABD  FF 06 9E 03			inc		word ptr ds:[0x39e]
1AC1				L$404:
1AC1  80 3C 00				cmp		byte ptr [si],0x00
1AC4  75 18				jne		L$406
1AC6  A9 01 00				test		ax,0x0001
1AC9  75 08				jne		L$405
1ACB  C7 06 A0 03 02 00			mov		word ptr ds:[0x3a0],0x0002
1AD1  EB 0E				jmp		L$407
1AD3				L$405:
1AD3  50				push		ax
1AD4  B0 03				mov		al,0x03
1AD6  B4 FF				mov		ah,0xff
1AD8  E8 94 00				call		L$422
1ADB  58				pop		ax
1ADC  EB 03				jmp		L$407
1ADE				L$406:
1ADE  E8 10 01				call		L$432
1AE1				L$407:
1AE1  58				pop		ax
1AE2  C3				ret
1AE3				L$408:
1AE3  F9				stc
1AE4  C3				ret
1AE5				L$409:
1AE5  55				push		bp
1AE6  51				push		cx
1AE7  26 8A 4F 08			mov		cl,es:0x8[bx]
1AEB  32 ED				xor		ch,ch
1AED  0B C9				or		cx,cx
1AEF  74 0D				je		L$411
1AF1  8D 6F 09				lea		bp,0x9[bx]
1AF4				L$410:
1AF4  E8 47 02				call		L$461
1AF7  73 08				jae		L$412
1AF9  E8 0D 00				call		L$414
1AFC  E2 F6				loop		L$410
1AFE				L$411:
1AFE  F9				stc
1AFF  EB 05				jmp		L$413
1B01				L$412:
1B01  89 2E B3 03			mov		ds:[0x3b3],bp
1B05  F8				clc
1B06				L$413:
1B06  59				pop		cx
1B07  5D				pop		bp
1B08  C3				ret
1B09				L$414:
1B09  26 80 7E 00 00			cmp		byte ptr es:[bp],0x00
1B0E  74 03				je		L$415
1B10  45				inc		bp
1B11  EB F6				jmp		L$414
1B13				L$415:
1B13  45				inc		bp
1B14  C3				ret
1B15				L$416:
1B15  80 0E AC 03 10			or		byte ptr ds:[0x3ac],0x10
1B1A  E8 C8 FF				call		L$409
1B1D  72 42				jb		L$419
1B1F  80 26 AC 03 EF			and		byte ptr ds:[0x3ac],0xef
1B24  50				push		ax
1B25  A1 AF 03				mov		ax,ds:[0x3af]
1B28  2B C6				sub		ax,si
1B2A  01 06 AD 03			add		ds:[0x3ad],ax
1B2E  58				pop		ax
1B2F  8B 36 AF 03			mov		si,ds:[0x3af]
1B33  80 3C 00				cmp		byte ptr [si],0x00
1B36  75 23				jne		L$418
1B38  80 7C FF 3A			cmp		byte ptr -0x1[si],0x3a
1B3C  75 08				jne		L$417
1B3E  C7 06 A0 03 09 00			mov		word ptr ds:[0x3a0],0x0009
1B44  EB 1E				jmp		L$420
1B46				L$417:
1B46  26 83 3F 00			cmp		word ptr es:[bx],0x0000
1B4A  74 18				je		L$420
1B4C  26 F7 07 01 00			test		word ptr es:[bx],0x0001
1B51  75 11				jne		L$420
1B53  C7 06 A0 03 02 00			mov		word ptr ds:[0x3a0],0x0002
1B59  EB 09				jmp		L$420
1B5B				L$418:
1B5B  E8 93 00				call		L$432
1B5E  F8				clc
1B5F  EB 0D				jmp		L$421
1B61				L$419:
1B61  F9				stc
1B62  EB 0A				jmp		L$421
1B64				L$420:
1B64  50				push		ax
1B65  B0 03				mov		al,0x03
1B67  B4 FF				mov		ah,0xff
1B69  E8 03 00				call		L$422
1B6C  58				pop		ax
1B6D  F8				clc
1B6E				L$421:
1B6E  C3				ret
1B6F				L$422:
1B6F  57				push		di
1B70  26 8B 7F 04			mov		di,es:0x4[bx]
1B74  89 3E A4 03			mov		ds:[0x3a4],di
1B78  26 88 05				mov		es:[di],al
1B7B  26 88 65 01			mov		es:0x1[di],ah
1B7F  50				push		ax
1B80  A1 B3 03				mov		ax,ds:[0x3b3]
1B83  26 89 45 02			mov		es:0x2[di],ax
1B87  58				pop		ax
1B88  3C 01				cmp		al,0x01
1B8A  75 0A				jne		L$424
1B8C				L$423:
1B8C  26 89 55 04			mov		es:0x4[di],dx
1B90  26 89 4D 06			mov		es:0x6[di],cx
1B94  EB 59				jmp		L$431
1B96				L$424:
1B96  3C 02				cmp		al,0x02
1B98  75 06				jne		L$425
1B9A  26 89 55 04			mov		es:0x4[di],dx
1B9E  EB 4F				jmp		L$431
1BA0				L$425:
1BA0  3C 07				cmp		al,0x07
1BA2  74 E8				je		L$423
1BA4  3C 08				cmp		al,0x08
1BA6  74 E4				je		L$423
1BA8  3C 06				cmp		al,0x06
1BAA  75 06				jne		L$426
1BAC  26 88 55 04			mov		es:0x4[di],dl
1BB0  EB 3D				jmp		L$431
1BB2				L$426:
1BB2  3C 04				cmp		al,0x04
1BB4  75 0E				jne		L$427
1BB6  A1 AD 03				mov		ax,ds:[0x3ad]
1BB9  40				inc		ax
1BBA  26 89 45 04			mov		es:0x4[di],ax
1BBE  26 8C 5D 06			mov		word ptr es:0x6[di],ds
1BC2  EB 2B				jmp		L$431
1BC4				L$427:
1BC4  26 89 75 04			mov		es:0x4[di],si
1BC8  26 8C 5D 06			mov		word ptr es:0x6[di],ds
1BCC  50				push		ax
1BCD  26 F6 47 02 01			test		byte ptr es:0x2[bx],0x01
1BD2  74 04				je		L$428
1BD4  B0 04				mov		al,0x04
1BD6  EB 09				jmp		L$429
1BD8				L$428:
1BD8  26 F6 47 02 02			test		byte ptr es:0x2[bx],0x02
1BDD  74 05				je		L$430
1BDF  B0 02				mov		al,0x02
1BE1				L$429:
1BE1  E8 BF 00				call		L$446
1BE4				L$430:
1BE4  58				pop		ax
1BE5  26 F6 47 02 10			test		byte ptr es:0x2[bx],0x10
1BEA  74 03				je		L$431
1BEC  E8 91 00				call		L$441
1BEF				L$431:
1BEF  5F				pop		di
1BF0  C3				ret
1BF1				L$432:
1BF1  C6 06 73 04 00			mov		byte ptr ds:[0x473],0x00
1BF6  50				push		ax
1BF7  26 8B 07				mov		ax,es:[bx]
1BFA  0B C0				or		ax,ax
1BFC  75 17				jne		L$433
1BFE  50				push		ax
1BFF  53				push		bx
1C00  52				push		dx
1C01  57				push		di
1C02  C7 06 A0 03 09 00			mov		word ptr ds:[0x3a0],0x0009
1C08  B4 FF				mov		ah,0xff
1C0A  B0 03				mov		al,0x03
1C0C  E8 60 FF				call		L$422
1C0F  5F				pop		di
1C10  5A				pop		dx
1C11  5B				pop		bx
1C12  58				pop		ax
1C13  EB 17				jmp		L$435
1C15				L$433:
1C15  A9 00 10				test		ax,0x1000
1C18  74 10				je		L$434
1C1A  C7 06 A0 03 00 00			mov		word ptr ds:[0x3a0],0x0000
1C20  E8 B8 01				call		L$474
1C23  83 3E A0 03 09			cmp		word ptr ds:[0x3a0],0x0009
1C28  75 02				jne		L$435
1C2A				L$434:
1C2A  EB 03				jmp		L$436
1C2C				L$435:
1C2C  EB 3C				jmp		L$439
1C2E  90				nop
1C2F				L$436:
1C2F  A9 00 01				test		ax,0x0100
1C32  74 13				je		L$437
1C34  C7 06 A0 03 00 00			mov		word ptr ds:[0x3a0],0x0000
1C3A  E8 B2 02				call		L$495
1C3D  E8 2A 03				call		L$507
1C40  83 3E A0 03 09			cmp		word ptr ds:[0x3a0],0x0009
1C45  75 23				jne		L$439
1C47				L$437:
1C47  A9 00 02				test		ax,0x0200
1C4A  74 10				je		L$438
1C4C  C7 06 A0 03 00 00			mov		word ptr ds:[0x3a0],0x0000
1C52  E8 9A 02				call		L$495
1C55  83 3E A0 03 09			cmp		word ptr ds:[0x3a0],0x0009
1C5A  75 0E				jne		L$439
1C5C				L$438:
1C5C  A9 00 20				test		ax,0x2000
1C5F  74 09				je		L$439
1C61  C7 06 A0 03 00 00			mov		word ptr ds:[0x3a0],0x0000
1C67  E8 AF 00				call		L$458
1C6A				L$439:
1C6A  80 3E 73 04 01			cmp		byte ptr ds:[0x473],0x01
1C6F  75 0D				jne		L$440
1C71  83 3E A0 03 00			cmp		word ptr ds:[0x3a0],0x0000
1C76  75 06				jne		L$440
1C78  C7 06 A0 03 09 00			mov		word ptr ds:[0x3a0],0x0009
1C7E				L$440:
1C7E  58				pop		ax
1C7F  C3				ret
1C80				L$441:
1C80  50				push		ax
1C81  56				push		si
1C82				L$442:
1C82  8A 04				mov		al,[si]
1C84  0A C0				or		al,al
1C86  74 18				je		L$445
1C88  3C 3A				cmp		al,0x3a
1C8A  75 0B				jne		L$443
1C8C  80 7C 01 00			cmp		byte ptr 0x1[si],0x00
1C90  75 05				jne		L$443
1C92  C6 04 00				mov		byte ptr [si],0x00
1C95  EB 09				jmp		L$445
1C97				L$443:
1C97  E8 F2 03				call		L$533
1C9A  73 01				jae		L$444
1C9C  46				inc		si
1C9D				L$444:
1C9D  46				inc		si
1C9E  EB E2				jmp		L$442
1CA0				L$445:
1CA0  5E				pop		si
1CA1  58				pop		ax
1CA2  C3				ret
1CA3				L$446:
1CA3  56				push		si
1CA4  52				push		dx
1CA5  8A D0				mov		dl,al
1CA7				L$447:
1CA7  8A 04				mov		al,[si]
1CA9  E8 E0 03				call		L$533
1CAC  72 0B				jb		L$448
1CAE  0A C0				or		al,al
1CB0  74 0B				je		L$450
1CB2  E8 0B 00				call		L$451
1CB5  88 04				mov		[si],al
1CB7  EB 01				jmp		L$449
1CB9				L$448:
1CB9  46				inc		si
1CBA				L$449:
1CBA  46				inc		si
1CBB  EB EA				jmp		L$447
1CBD				L$450:
1CBD  5A				pop		dx
1CBE  5E				pop		si
1CBF  C3				ret
1CC0				L$451:
1CC0  3C 80				cmp		al,0x80
1CC2  73 0C				jae		L$452
1CC4  3C 61				cmp		al,0x61
1CC6  72 42				jb		L$455
1CC8  3C 7A				cmp		al,0x7a
1CCA  77 3E				ja		L$455
1CCC  24 DF				and		al,0xdf
1CCE  EB 3A				jmp		L$455
1CD0				L$452:
1CD0  53				push		bx
1CD1  06				push		es
1CD2  57				push		di
1CD3  8D 3E 65 04			lea		di,L$55
1CD7  80 FA 04				cmp		dl,0x04
1CDA  74 04				je		L$453
1CDC  8D 3E 60 04			lea		di,L$54
1CE0				L$453:
1CE0  38 15				cmp		[di],dl
1CE2  74 17				je		L$454
1CE4  50				push		ax
1CE5  51				push		cx
1CE6  52				push		dx
1CE7  1E				push		ds
1CE8  07				pop		es
1CE9  B4 65				mov		ah,0x65
1CEB  8A C2				mov		al,dl
1CED  BB FF FF				mov		bx,0xffff
1CF0  B9 05 00				mov		cx,0x0005
1CF3  BA FF FF				mov		dx,0xffff
1CF6  CD 21				int		0x21
1CF8  5A				pop		dx
1CF9  59				pop		cx
1CFA  58				pop		ax
1CFB				L$454:
1CFB  8B 5D 01				mov		bx,0x1[di]
1CFE  8E 45 03				mov		es,word ptr 0x3[di]
1D01  43				inc		bx
1D02  43				inc		bx
1D03  2C 80				sub		al,0x80
1D05  26 D7				xlat		word ptr es:[bx]
1D07  5F				pop		di
1D08  07				pop		es
1D09  5B				pop		bx
1D0A				L$455:
1D0A  C3				ret
1D0B				L$456:
1D0B  3C 30				cmp		al,0x30
1D0D  72 08				jb		L$457
1D0F  3C 39				cmp		al,0x39
1D11  77 04				ja		L$457
1D13  2C 30				sub		al,0x30
1D15  F8				clc
1D16  C3				ret
1D17				L$457:
1D17  F9				stc
1D18  C3				ret
1D19				L$458:
1D19  50				push		ax
1D1A  53				push		bx
1D1B  52				push		dx
1D1C  57				push		di
1D1D  26 8B 7F 06			mov		di,es:0x6[bx]
1D21  26 8A 05				mov		al,es:[di]
1D24  0A C0				or		al,al
1D26  75 04				jne		L$459
1D28  B4 FF				mov		ah,0xff
1D2A  EB 08				jmp		L$460
1D2C				L$459:
1D2C  C7 06 A0 03 09 00			mov		word ptr ds:[0x3a0],0x0009
1D32  B4 FF				mov		ah,0xff
1D34				L$460:
1D34  B0 03				mov		al,0x03
1D36  E8 36 FE				call		L$422
1D39  5F				pop		di
1D3A  5A				pop		dx
1D3B  5B				pop		bx
1D3C  58				pop		ax
1D3D  C3				ret
1D3E				L$461:
1D3E  50				push		ax
1D3F  55				push		bp
1D40  52				push		dx
1D41  56				push		si
1D42  B2 02				mov		dl,0x02
1D44				L$462:
1D44  8A 04				mov		al,[si]
1D46  E8 43 03				call		L$533
1D49  72 3A				jb		L$466
1D4B  E8 72 FF				call		L$451
1D4E  F6 06 AC 03 08			test		byte ptr ds:[0x3ac],0x08
1D53  74 0D				je		L$463
1D55  3C 3D				cmp		al,0x3d
1D57  75 1E				jne		L$465
1D59  26 80 7E 01 00			cmp		byte ptr es:0x1[bp],0x00
1D5E  75 6E				jne		L$471
1D60  EB 12				jmp		L$464
1D62				L$463:
1D62  F6 06 AC 03 10			test		byte ptr ds:[0x3ac],0x10
1D67  74 0E				je		L$465
1D69  3C 3A				cmp		al,0x3a
1D6B  75 0A				jne		L$465
1D6D  26 80 7E 00 00			cmp		byte ptr es:[bp],0x00
1D72  75 5A				jne		L$471
1D74				L$464:
1D74  46				inc		si
1D75  EB 5A				jmp		L$472
1D77				L$465:
1D77  26 3A 46 00			cmp		al,es:[bp]
1D7B  75 1C				jne		L$468
1D7D  0A C0				or		al,al
1D7F  74 50				je		L$472
1D81  46				inc		si
1D82  45				inc		bp
1D83  EB 12				jmp		L$467
1D85				L$466:
1D85  26 3A 46 00			cmp		al,es:[bp]
1D89  75 43				jne		L$471
1D8B  46				inc		si
1D8C  8A 04				mov		al,[si]
1D8E  45				inc		bp
1D8F  26 3A 46 00			cmp		al,es:[bp]
1D93  75 39				jne		L$471
1D95  46				inc		si
1D96  45				inc		bp
1D97				L$467:
1D97  EB AB				jmp		L$462
1D99				L$468:
1D99  F6 06 AC 03 40			test		byte ptr ds:[0x3ac],0x40
1D9E  74 0F				je		L$469
1DA0  26 F7 47 02 20 00			test		word ptr es:0x2[bx],0x0020
1DA6  74 07				je		L$469
1DA8  26 80 7E 00 00			cmp		byte ptr es:[bp],0x00
1DAD  74 22				je		L$472
1DAF				L$469:
1DAF  26 F7 07 10 00			test		word ptr es:[bx],0x0010
1DB4  74 18				je		L$471
1DB6  3C 3A				cmp		al,0x3a
1DB8  75 09				jne		L$470
1DBA  26 80 7E 00 00			cmp		byte ptr es:[bp],0x00
1DBF  75 0D				jne		L$471
1DC1  EB 0E				jmp		L$472
1DC3				L$470:
1DC3  3C 00				cmp		al,0x00
1DC5  75 07				jne		L$471
1DC7  26 80 7E 00 3A			cmp		byte ptr es:[bp],0x3a
1DCC  74 03				je		L$472
1DCE				L$471:
1DCE  F9				stc
1DCF  EB 05				jmp		L$473
1DD1				L$472:
1DD1  89 36 AF 03			mov		ds:[0x3af],si
1DD5  F8				clc
1DD6				L$473:
1DD6  5E				pop		si
1DD7  5A				pop		dx
1DD8  5D				pop		bp
1DD9  58				pop		ax
1DDA  C3				ret
1DDB				L$474:
1DDB  50				push		ax
1DDC  51				push		cx
1DDD  52				push		dx
1DDE  56				push		si
1DDF  53				push		bx
1DE0  56				push		si
1DE1  E8 9C 00				call		L$483
1DE4  5E				pop		si
1DE5  C7 06 58 04 00 00			mov		word ptr ds:[0x458],0x0000
1DEB  C7 06 5A 04 00 00			mov		word ptr ds:[0x45a],0x0000
1DF1  C7 06 5C 04 00 00			mov		word ptr ds:[0x45c],0x0000
1DF7  E8 A1 00				call		L$486
1DFA  72 16				jb		L$475
1DFC  A3 58 04				mov		ds:[0x458],ax
1DFF  0A DB				or		bl,bl
1E01  74 18				je		L$476
1E03  E8 95 00				call		L$486
1E06  72 65				jb		L$481
1E08  A3 5A 04				mov		ds:[0x45a],ax
1E0B  0A DB				or		bl,bl
1E0D  74 0C				je		L$476
1E0F  E8 89 00				call		L$486
1E12				L$475:
1E12  72 59				jb		L$481
1E14  A3 5C 04				mov		ds:[0x45c],ax
1E17  0A DB				or		bl,bl
1E19  75 52				jne		L$481
1E1B				L$476:
1E1B  8B 1E 36 04			mov		bx,ds:[0x436]
1E1F  83 FB 02				cmp		bx,0x0002
1E22  74 1F				je		L$478
1E24  A1 58 04				mov		ax,ds:[0x458]
1E27  0A E4				or		ah,ah
1E29  75 42				jne		L$481
1E2B  8A C8				mov		cl,al
1E2D  A1 5A 04				mov		ax,ds:[0x45a]
1E30  0A E4				or		ah,ah
1E32  75 39				jne		L$481
1E34  8A E8				mov		ch,al
1E36  8B 16 5C 04			mov		dx,ds:[0x45c]
1E3A  83 FB 01				cmp		bx,0x0001
1E3D  75 02				jne		L$477
1E3F  86 E9				xchg		cl,ch
1E41				L$477:
1E41  EB 16				jmp		L$479
1E43				L$478:
1E43  8B 16 58 04			mov		dx,ds:[0x458]
1E47  A1 5A 04				mov		ax,ds:[0x45a]
1E4A  0A E4				or		ah,ah
1E4C  75 1F				jne		L$481
1E4E  8A C8				mov		cl,al
1E50  A1 5C 04				mov		ax,ds:[0x45c]
1E53  0A E4				or		ah,ah
1E55  75 16				jne		L$481
1E57  8A E8				mov		ch,al
1E59				L$479:
1E59  83 FA 64				cmp		dx,0x0064
1E5C  73 04				jae		L$480
1E5E  81 C2 6C 07			add		dx,0x076c
1E62				L$480:
1E62  5B				pop		bx
1E63  5E				pop		si
1E64  B4 FF				mov		ah,0xff
1E66  B0 07				mov		al,0x07
1E68  E8 04 FD				call		L$422
1E6B  EB 0F				jmp		L$482
1E6D				L$481:
1E6D  5B				pop		bx
1E6E  5E				pop		si
1E6F  B4 FF				mov		ah,0xff
1E71  B0 03				mov		al,0x03
1E73  E8 F9 FC				call		L$422
1E76  C7 06 A0 03 09 00			mov		word ptr ds:[0x3a0],0x0009
1E7C				L$482:
1E7C  5A				pop		dx
1E7D  59				pop		cx
1E7E  58				pop		ax
1E7F  C3				ret
1E80				L$483:
1E80  8D 36 36 04			lea		si,L$53
1E84  83 3C FF				cmp		word ptr [si],0xffff
1E87  74 02				je		L$484
1E89  EB 0F				jmp		L$485
1E8B				L$484:
1E8B  1E				push		ds
1E8C  52				push		dx
1E8D  50				push		ax
1E8E  1E				push		ds
1E8F  1F				pop		ds
1E90  B8 00 38				mov		ax,0x3800
1E93  8B D6				mov		dx,si
1E95  CD 21				int		0x21
1E97  58				pop		ax
1E98  5A				pop		dx
1E99  1F				pop		ds
1E9A				L$485:
1E9A  C3				ret
1E9B				L$486:
1E9B  51				push		cx
1E9C  52				push		dx
1E9D  33 C9				xor		cx,cx
1E9F				L$487:
1E9F  8A 04				mov		al,[si]
1EA1  0A C0				or		al,al
1EA3  74 3B				je		L$491
1EA5  80 3E 35 04 00			cmp		byte ptr ds:[0x435],0x00
1EAA  74 0F				je		L$489
1EAC  80 FB 01				cmp		bl,0x01
1EAF  75 04				jne		L$488
1EB1  3C 3A				cmp		al,0x3a
1EB3  74 30				je		L$492
1EB5				L$488:
1EB5  3C 2E				cmp		al,0x2e
1EB7  74 2C				je		L$492
1EB9  EB 0C				jmp		L$490
1EBB				L$489:
1EBB  3C 2D				cmp		al,0x2d
1EBD  74 26				je		L$492
1EBF  3C 2F				cmp		al,0x2f
1EC1  74 22				je		L$492
1EC3  3C 2E				cmp		al,0x2e
1EC5  74 1E				je		L$492
1EC7				L$490:
1EC7  E8 41 FE				call		L$456
1ECA  72 1E				jb		L$494
1ECC  B4 00				mov		ah,0x00
1ECE  91				xchg		ax,cx
1ECF  BA 0A 00				mov		dx,0x000a
1ED2  F7 E2				mul		dx
1ED4  0B D2				or		dx,dx
1ED6  75 11				jne		L$493
1ED8  03 C1				add		ax,cx
1EDA  72 0E				jb		L$494
1EDC  91				xchg		ax,cx
1EDD  46				inc		si
1EDE  EB BF				jmp		L$487
1EE0				L$491:
1EE0  8A D8				mov		bl,al
1EE2  F8				clc
1EE3  EB 05				jmp		L$494
1EE5				L$492:
1EE5  46				inc		si
1EE6  F8				clc
1EE7  EB 01				jmp		L$494
1EE9				L$493:
1EE9  F9				stc
1EEA				L$494:
1EEA  8B C1				mov		ax,cx
1EEC  5A				pop		dx
1EED  59				pop		cx
1EEE  C3				ret
1EEF				L$495:
1EEF  50				push		ax
1EF0  57				push		di
1EF1  56				push		si
1EF2  8B 3E AD 03			mov		di,ds:[0x3ad]
1EF6  8A 04				mov		al,[si]
1EF8  0A C0				or		al,al
1EFA  74 11				je		L$496
1EFC  E8 57 00				call		L$504
1EFF  75 20				jne		L$497
1F01  C6 06 73 04 01			mov		byte ptr ds:[0x473],0x01
1F06  5E				pop		si
1F07  C6 04 00				mov		byte ptr [si],0x00
1F0A  5F				pop		di
1F0B  EB 39				jmp		L$502
1F0D				L$496:
1F0D  5E				pop		si
1F0E  C6 04 00				mov		byte ptr [si],0x00
1F11  5F				pop		di
1F12  26 F7 07 01 00			test		word ptr es:[bx],0x0001
1F17  75 2D				jne		L$502
1F19  C7 06 A0 03 02 00			mov		word ptr ds:[0x3a0],0x0002
1F1F  EB 25				jmp		L$502
1F21				L$497:
1F21  58				pop		ax
1F22  56				push		si
1F23				L$498:
1F23  8A 04				mov		al,[si]
1F25  0A C0				or		al,al
1F27  74 1B				je		L$501
1F29  E8 2A 00				call		L$504
1F2C  74 0B				je		L$500
1F2E  E8 5B 01				call		L$533
1F31  73 02				jae		L$499
1F33  47				inc		di
1F34  46				inc		si
1F35				L$499:
1F35  47				inc		di
1F36  46				inc		si
1F37  EB EA				jmp		L$498
1F39				L$500:
1F39  A2 A6 03				mov		ds:[0x3a6],al
1F3C  C6 04 00				mov		byte ptr [si],0x00
1F3F  47				inc		di
1F40  89 3E A2 03			mov		ds:[0x3a2],di
1F44				L$501:
1F44  5E				pop		si
1F45  5F				pop		di
1F46				L$502:
1F46  58				pop		ax
1F47  A9 00 02				test		ax,0x0200
1F4A  74 09				je		L$503
1F4C  50				push		ax
1F4D  B4 FF				mov		ah,0xff
1F4F  B0 05				mov		al,0x05
1F51  E8 1B FC				call		L$422
1F54  58				pop		ax
1F55				L$503:
1F55  C3				ret
1F56				L$504:
1F56  53				push		bx
1F57  51				push		cx
1F58  8D 1E 6A 04			lea		bx,L$57
1F5C  B9 09 00				mov		cx,0x0009
1F5F				L$505:
1F5F  3A 07				cmp		al,[bx]
1F61  74 04				je		L$506
1F63  43				inc		bx
1F64  E2 F9				loop		L$505
1F66  41				inc		cx
1F67				L$506:
1F67  59				pop		cx
1F68  5B				pop		bx
1F69  C3				ret
1F6A				L$507:
1F6A  50				push		ax
1F6B  52				push		dx
1F6C  8A 04				mov		al,[si]
1F6E  0A C0				or		al,al
1F70  74 35				je		L$510
1F72  E8 17 01				call		L$533
1F75  72 2A				jb		L$509
1F77  83 7C 01 3A			cmp		word ptr 0x1[si],0x003a
1F7B  74 0D				je		L$508
1F7D  26 F7 07 10 00			test		word ptr es:[bx],0x0010
1F82  74 1D				je		L$509
1F84  80 7C 01 00			cmp		byte ptr 0x1[si],0x00
1F88  75 17				jne		L$509
1F8A				L$508:
1F8A  0C 20				or		al,0x20
1F8C  3C 61				cmp		al,0x61
1F8E  72 11				jb		L$509
1F90  3C 7A				cmp		al,0x7a
1F92  77 0D				ja		L$509
1F94  2C 60				sub		al,0x60
1F96  8A D0				mov		dl,al
1F98  B4 FF				mov		ah,0xff
1F9A  B0 06				mov		al,0x06
1F9C  E8 D0 FB				call		L$422
1F9F  EB 06				jmp		L$510
1FA1				L$509:
1FA1  C7 06 A0 03 09 00			mov		word ptr ds:[0x3a0],0x0009
1FA7				L$510:
1FA7  5A				pop		dx
1FA8  58				pop		ax
1FA9  C3				ret
1FAA				L$511:
1FAA  AC				lodsb
1FAB  E8 20 00				call		L$516
1FAE  74 16				je		L$512
1FB0  E8 51 00				call		L$520
1FB3  75 14				jne		L$513
1FB5  F6 06 AC 03 20			test		byte ptr ds:[0x3ac],0x20
1FBA  74 EE				je		L$511
1FBC  F6 06 AC 03 41			test		byte ptr ds:[0x3ac],0x41
1FC1  74 09				je		L$515
1FC3  4E				dec		si
1FC4  EB 06				jmp		L$515
1FC6				L$512:
1FC6  F9				stc
1FC7  EB 01				jmp		L$514
1FC9				L$513:
1FC9  F8				clc
1FCA				L$514:
1FCA  4E				dec		si
1FCB  C3				ret
1FCC				L$515:
1FCC  F8				clc
1FCD  C3				ret
1FCE				L$516:
1FCE  53				push		bx
1FCF  51				push		cx
1FD0  3C 0D				cmp		al,0x0d
1FD2  74 2D				je		L$519
1FD4  3C 00				cmp		al,0x00
1FD6  74 29				je		L$519
1FD8  3C 0A				cmp		al,0x0a
1FDA  74 25				je		L$519
1FDC  26 80 7D 02 02			cmp		byte ptr es:0x2[di],0x02
1FE1  72 1E				jb		L$519
1FE3  33 DB				xor		bx,bx
1FE5  26 8A 5D 03			mov		bl,es:0x3[di]
1FE9  83 C3 04				add		bx,0x0004
1FEC  26 80 39 00			cmp		byte ptr es:[bx+di],0x00
1FF0  74 0D				je		L$518
1FF2  33 C9				xor		cx,cx
1FF4  26 8A 09				mov		cl,es:[bx+di]
1FF7				L$517:
1FF7  43				inc		bx
1FF8  26 3A 01				cmp		al,es:[bx+di]
1FFB  74 04				je		L$519
1FFD  E2 F8				loop		L$517
1FFF				L$518:
1FFF  3C 0D				cmp		al,0x0d
2001				L$519:
2001  59				pop		cx
2002  5B				pop		bx
2003  C3				ret
2004				L$520:
2004  53				push		bx
2005  51				push		cx
2006  C6 06 A6 03 20			mov		byte ptr ds:[0x3a6],0x20
200B  80 26 AC 03 DF			and		byte ptr ds:[0x3ac],0xdf
2010  3C 20				cmp		al,0x20
2012  74 36				je		L$524
2014  3C 09				cmp		al,0x09
2016  74 32				je		L$524
2018  3C 2C				cmp		al,0x2c
201A  74 31				je		L$525
201C  3C 81				cmp		al,0x81
201E  75 0C				jne		L$521
2020  80 3C 40				cmp		byte ptr [si],0x40
2023  75 07				jne		L$521
2025  B0 20				mov		al,0x20
2027  46				inc		si
2028  3A C0				cmp		al,al
202A  EB 1E				jmp		L$524
202C				L$521:
202C  26 80 7D 02 01			cmp		byte ptr es:0x2[di],0x01
2031  72 17				jb		L$524
2033  33 C9				xor		cx,cx
2035  26 8A 4D 03			mov		cl,es:0x3[di]
2039  0B C9				or		cx,cx
203B  74 0B				je		L$523
203D  BB 03 00				mov		bx,0x0003
2040				L$522:
2040  43				inc		bx
2041  26 3A 01				cmp		al,es:[bx+di]
2044  74 07				je		L$525
2046  E2 F8				loop		L$522
2048				L$523:
2048  3C 20				cmp		al,0x20
204A				L$524:
204A  59				pop		cx
204B  5B				pop		bx
204C  C3				ret
204D				L$525:
204D  A2 A6 03				mov		ds:[0x3a6],al
2050  F6 06 AC 03 01			test		byte ptr ds:[0x3ac],0x01
2055  75 05				jne		L$526
2057  80 0E AC 03 20			or		byte ptr ds:[0x3ac],0x20
205C				L$526:
205C  3A C0				cmp		al,al
205E  EB EA				jmp		L$524
2060				L$527:
2060  8D 2E B5 03			lea		bp,L$46
2064  3B DD				cmp		bx,bp
2066  74 19				je		L$530
2068  3C 2F				cmp		al,0x2f
206A  75 12				jne		L$529
206C  F9				stc
206D  50				push		ax
206E  8A 47 FF				mov		al,-0x1[bx]
2071  E8 97 FC				call		L$456
2074  72 05				jb		L$528
2076  8A 04				mov		al,[si]
2078  E8 90 FC				call		L$456
207B				L$528:
207B  58				pop		ax
207C  EB 0D				jmp		L$532
207E				L$529:
207E  F8				clc
207F  EB 0A				jmp		L$532
2081				L$530:
2081  3C 2F				cmp		al,0x2f
2083  75 05				jne		L$531
2085  80 0E AC 03 40			or		byte ptr ds:[0x3ac],0x40
208A				L$531:
208A  F8				clc
208B				L$532:
208B  C3				ret
208C				L$533:
208C  1E				push		ds
208D  56				push		si
208E  53				push		bx
208F  83 3E A9 03 00			cmp		word ptr ds:[0x3a9],0x0000
2094  75 25				jne		L$534
2096  50				push		ax
2097  1E				push		ds
2098  51				push		cx
2099  52				push		dx
209A  57				push		di
209B  55				push		bp
209C  06				push		es
209D  33 F6				xor		si,si
209F  8E DE				mov		ds,si
20A1  B8 00 63				mov		ax,0x6300
20A4  CD 21				int		0x21
20A6  8C DB				mov		bx,ds
20A8  0B DB				or		bx,bx
20AA  07				pop		es
20AB  5D				pop		bp
20AC  5F				pop		di
20AD  5A				pop		dx
20AE  59				pop		cx
20AF  1F				pop		ds
20B0  58				pop		ax
20B1  74 25				je		L$537
20B3  89 36 A7 03			mov		ds:[0x3a7],si
20B7  89 1E A9 03			mov		ds:[0x3a9],bx
20BB				L$534:
20BB  8B 36 A7 03			mov		si,ds:[0x3a7]
20BF  8E 1E A9 03			mov		ds,word ptr ds:[0x3a9]
20C3				L$535:
20C3  83 3C 00				cmp		word ptr [si],0x0000
20C6  74 10				je		L$537
20C8  3A 04				cmp		al,[si]
20CA  72 08				jb		L$536
20CC  3A 44 01				cmp		al,0x1[si]
20CF  77 03				ja		L$536
20D1  F9				stc
20D2  EB 05				jmp		L$538
20D4				L$536:
20D4  46				inc		si
20D5  46				inc		si
20D6  EB EB				jmp		L$535
20D8				L$537:
20D8  F8				clc
20D9				L$538:
20D9  5B				pop		bx
20DA  5E				pop		si
20DB  1F				pop		ds
20DC  C3				ret
20DD				L$539:
20DD  55				push		bp
20DE  8B EC				mov		bp,sp
20E0  57				push		di
20E1  56				push		si
20E2  8B 7E 04				mov		di,0x4[bp]
20E5  8B 45 0A				mov		ax,0xa[di]
20E8  50				push		ax
20E9  8B 05				mov		ax,[di]
20EB  8B 5D 02				mov		bx,0x2[di]
20EE  8B 4D 04				mov		cx,0x4[di]
20F1  8B 55 06				mov		dx,0x6[di]
20F4  8B 75 08				mov		si,0x8[di]
20F7  5F				pop		di
20F8  55				push		bp
20F9  E8 7A F8				call		L$385
20FC  5D				pop		bp
20FD  57				push		di
20FE  8B 7E 06				mov		di,0x6[bp]
2101  89 05				mov		[di],ax
2103  89 5D 02				mov		0x2[di],bx
2106  89 4D 04				mov		0x4[di],cx
2109  89 55 06				mov		0x6[di],dx
210C  89 75 08				mov		0x8[di],si
210F  9F				lahf
2110  8A C4				mov		al,ah
2112  89 45 0C				mov		0xc[di],ax
2115  58				pop		ax
2116  89 45 0A				mov		0xa[di],ax
2119  5E				pop		si
211A  5F				pop		di
211B  8B E5				mov		sp,bp
211D  5D				pop		bp
211E  C3				ret
211F				L$540:
211F  55				push		bp
2120  8B EC				mov		bp,sp
2122  B8 0E 00				mov		ax,0x000e
2125  E8 2E 04				call		L$592
2128  56				push		si
2129  E8 BC 00				call		L$550
212C  FF 76 04				push		word ptr 0x4[bp]
212F  E8 92 18				call		L$914
2132  83 C4 02				add		sp,0x0002
2135  89 46 FA				mov		-0x6[bp],ax
2138  FF 76 06				push		word ptr 0x6[bp]
213B  E8 86 18				call		L$914
213E  83 C4 02				add		sp,0x0002
2141  89 46 F6				mov		-0xa[bp],ax
2144  8B 46 FA				mov		ax,-0x6[bp]
2147  39 46 F6				cmp		-0xa[bp],ax
214A  7E 05				jle		L$542
214C				L$541:
214C  2B C0				sub		ax,ax
214E  E9 92 00				jmp		L$549
2151				L$542:
2151  C7 46 F4 00 00			mov		word ptr -0xc[bp],0x0000
2156  C7 46 F2 00 00			mov		word ptr -0xe[bp],0x0000
215B				L$543:
215B  8B 46 FA				mov		ax,-0x6[bp]
215E  2B 46 F6				sub		ax,-0xa[bp]
2161  40				inc		ax
2162  3B 46 F4				cmp		ax,-0xc[bp]
2165  7E E5				jle		L$541
2167  8B 76 F4				mov		si,-0xc[bp]
216A  03 76 04				add		si,0x4[bp]
216D  8B 5E 06				mov		bx,0x6[bp]
2170  8A 04				mov		al,[si]
2172  38 07				cmp		[bx],al
2174  75 62				jne		L$548
2176  83 7E F4 00			cmp		word ptr -0xc[bp],0x0000
217A  74 17				je		L$544
217C  83 7E F4 00			cmp		word ptr -0xc[bp],0x0000
2180  74 56				je		L$548
2182  8A 44 FF				mov		al,-0x1[si]
2185  2A E4				sub		ah,ah
2187  50				push		ax
2188  E8 32 01				call		L$559
218B  83 C4 02				add		sp,0x0002
218E  3D 01 00				cmp		ax,0x0001
2191  74 45				je		L$548
2193				L$544:
2193  8B 46 F4				mov		ax,-0xc[bp]
2196  89 46 FE				mov		-0x2[bp],ax
2199  C7 46 FC 00 00			mov		word ptr -0x4[bp],0x0000
219E  8B 46 F6				mov		ax,-0xa[bp]
21A1  89 46 F8				mov		-0x8[bp],ax
21A4  EB 1E				jmp		L$546
21A6				L$545:
21A6  8B 5E FE				mov		bx,-0x2[bp]
21A9  8B 76 04				mov		si,0x4[bp]
21AC  8A 00				mov		al,[bx+si]
21AE  8B 5E FC				mov		bx,-0x4[bp]
21B1  8B 76 06				mov		si,0x6[bp]
21B4  38 00				cmp		[bx+si],al
21B6  75 12				jne		L$547
21B8  FF 4E F8				dec		word ptr -0x8[bp]
21BB  8B 46 FE				mov		ax,-0x2[bp]
21BE  FF 46 FE				inc		word ptr -0x2[bp]
21C1  FF 46 FC				inc		word ptr -0x4[bp]
21C4				L$546:
21C4  83 7E F8 00			cmp		word ptr -0x8[bp],0x0000
21C8  7F DC				jg		L$545
21CA				L$547:
21CA  83 7E F8 00			cmp		word ptr -0x8[bp],0x0000
21CE  75 08				jne		L$548
21D0  8B 46 F4				mov		ax,-0xc[bp]
21D3  03 46 04				add		ax,0x4[bp]
21D6  EB 0B				jmp		L$549
21D8				L$548:
21D8  C7 46 F2 00 00			mov		word ptr -0xe[bp],0x0000
21DD  FF 46 F4				inc		word ptr -0xc[bp]
21E0  E9 78 FF				jmp		L$543
21E3				L$549:
21E3  5E				pop		si
21E4  8B E5				mov		sp,bp
21E6  5D				pop		bp
21E7  C3				ret
21E8				L$550:
21E8  55				push		bp
21E9  8B EC				mov		bp,sp
21EB  B8 0A 00				mov		ax,0x000a
21EE  E8 65 03				call		L$592
21F1  56				push		si
21F2  2B C0				sub		ax,ax
21F4  89 46 FE				mov		-0x2[bp],ax
21F7  89 46 FC				mov		-0x4[bp],ax
21FA  83 3E 92 04 01			cmp		word ptr ds:[0x492],0x0001
21FF  75 05				jne		L$552
2201				L$551:
2201  2B C0				sub		ax,ax
2203  E9 B2 00				jmp		L$558
2206				L$552:
2206  B8 00 01				mov		ax,0x0100
2209  50				push		ax
220A  E8 AD 14				call		L$862
220D  83 C4 02				add		sp,0x0002
2210  A3 DC 09				mov		ds:[0x9dc],ax
2213  B8 00 01				mov		ax,0x0100
2216  50				push		ax
2217  E8 A0 14				call		L$862
221A  83 C4 02				add		sp,0x0002
221D  A3 06 0A				mov		ds:[0xa06],ax
2220  B8 05 00				mov		ax,0x0005
2223  50				push		ax
2224  8D 46 FC				lea		ax,-0x4[bp]
2227  16				push		ss
2228  50				push		ax
2229  B8 FC 09				mov		ax,0x09fc
222C  1E				push		ds
222D  50				push		ax
222E  9A 40 00 B8 03			call		L$4
2233  89 46 FA				mov		-0x6[bp],ax
2236  0B C0				or		ax,ax
2238  74 05				je		L$554
223A				L$553:
223A  8B 46 FA				mov		ax,-0x6[bp]
223D  EB 79				jmp		L$558
223F				L$554:
223F  C7 46 F6 00 00			mov		word ptr -0xa[bp],0x0000
2244				L$555:
2244  8B 5E F6				mov		bx,-0xa[bp]
2247  8B 36 DC 09			mov		si,ds:[0x9dc]
224B  8A 46 F6				mov		al,-0xa[bp]
224E  88 00				mov		[bx+si],al
2250  8B 5E F6				mov		bx,-0xa[bp]
2253  8B 36 06 0A			mov		si,ds:[0xa06]
2257  8A 46 F6				mov		al,-0xa[bp]
225A  88 00				mov		[bx+si],al
225C  FF 46 F6				inc		word ptr -0xa[bp]
225F  81 7E F6 00 01			cmp		word ptr -0xa[bp],0x0100
2264  7C DE				jl		L$555
2266  B8 00 01				mov		ax,0x0100
2269  50				push		ax
226A  8D 46 FC				lea		ax,-0x4[bp]
226D  16				push		ss
226E  50				push		ax
226F  A1 06 0A				mov		ax,ds:[0xa06]
2272  1E				push		ds
2273  50				push		ax
2274  9A 0A 00 B8 03			call		L$1
2279  89 46 FA				mov		-0x6[bp],ax
227C  0B C0				or		ax,ax
227E  75 BA				jne		L$553
2280  A1 06 0A				mov		ax,ds:[0xa06]
2283  89 46 F8				mov		-0x8[bp],ax
2286  C7 46 F6 00 00			mov		word ptr -0xa[bp],0x0000
228B				L$556:
228B  8B 5E F8				mov		bx,-0x8[bp]
228E  8A 07				mov		al,[bx]
2290  2A E4				sub		ah,ah
2292  8B F0				mov		si,ax
2294  39 76 F6				cmp		-0xa[bp],si
2297  74 09				je		L$557
2299  8B 1E DC 09			mov		bx,ds:[0x9dc]
229D  8A 46 F6				mov		al,-0xa[bp]
22A0  88 00				mov		[bx+si],al
22A2				L$557:
22A2  FF 46 F6				inc		word ptr -0xa[bp]
22A5  FF 46 F8				inc		word ptr -0x8[bp]
22A8  81 7E F6 00 01			cmp		word ptr -0xa[bp],0x0100
22AD  7C DC				jl		L$556
22AF  C7 06 92 04 01 00			mov		word ptr ds:[0x492],0x0001
22B5  E9 49 FF				jmp		L$551
22B8				L$558:
22B8  5E				pop		si
22B9  8B E5				mov		sp,bp
22BB  5D				pop		bp
22BC  C3				ret
22BD				L$559:
22BD  55				push		bp
22BE  8B EC				mov		bp,sp
22C0  B8 02 00				mov		ax,0x0002
22C3  E8 90 02				call		L$592
22C6  56				push		si
22C7  C7 46 FE 00 00			mov		word ptr -0x2[bp],0x0000
22CC				L$560:
22CC  8B 76 FE				mov		si,-0x2[bp]
22CF  D1 E6				shl		si,0x01
22D1  80 BC FC 09 00			cmp		byte ptr 0x9fc[si],0x00
22D6  75 0B				jne		L$561
22D8  80 BC FD 09 00			cmp		byte ptr 0x9fd[si],0x00
22DD  75 04				jne		L$561
22DF  2B C0				sub		ax,ax
22E1  EB 25				jmp		L$563
22E3				L$561:
22E3  8B 76 FE				mov		si,-0x2[bp]
22E6  D1 E6				shl		si,0x01
22E8  8A 46 04				mov		al,0x4[bp]
22EB  38 84 FC 09			cmp		0x9fc[si],al
22EF  77 0B				ja		L$562
22F1  38 84 FD 09			cmp		0x9fd[si],al
22F5  72 05				jb		L$562
22F7  B8 01 00				mov		ax,0x0001
22FA  EB 0C				jmp		L$563
22FC				L$562:
22FC  FF 46 FE				inc		word ptr -0x2[bp]
22FF  83 7E FE 05			cmp		word ptr -0x2[bp],0x0005
2303  72 C7				jb		L$560
2305  B8 FF FF				mov		ax,0xffff
2308				L$563:
2308  5E				pop		si
2309  8B E5				mov		sp,bp
230B  5D				pop		bp
230C  C3				ret
230D  00 B4 30 CD			add		-0x32d0[si],dh
2311  21 3C				and		[si],di
2313  02 73 02				add		dh,0x2[bp+di]
2316  CD 20				int		0x20
2318  BF C0 03				mov		di,0x03c0
231B  8B 36 02 00			mov		si,ds:[0x2]
231F  2B F7				sub		si,di
2321  81 FE 00 10			cmp		si,0x1000
2325  72 03				jb		L$564
2327  BE 00 10				mov		si,0x1000
232A				L$564:
232A  FA				cli
232B  8E D7				mov		ss,di
232D  81 C4 7E 0E			add		sp,0x0e7e
2331  FB				sti
2332  73 10				jae		L$565
2334  16				push		ss
2335  1F				pop		ds
2336  E8 F7 01				call		L$589
2339  33 C0				xor		ax,ax
233B  50				push		ax
233C  E8 76 04				call		L$638
233F  B8 FF 4C				mov		ax,0x4cff
2342  CD 21				int		0x21
2344				L$565:
2344  83 E4 FE				and		sp,0xfffe
2347  36 89 26 9A 04			mov		ss:[0x49a],sp
234C  36 89 26 96 04			mov		ss:[0x496],sp
2351  8B C6				mov		ax,si
2353  B1 04				mov		cl,0x04
2355  D3 E0				shl		ax,cl
2357  48				dec		ax
2358  36 A3 94 04			mov		ss:[0x494],ax
235C  03 F7				add		si,di
235E  89 36 02 00			mov		ds:[0x2],si
2362  8C C3				mov		bx,es
2364  2B DE				sub		bx,si
2366  F7 DB				neg		bx
2368  B4 4A				mov		ah,0x4a
236A  CD 21				int		0x21
236C  36 8C 1E 0B 05			mov		word ptr ss:[0x50b],ds
2371  16				push		ss
2372  07				pop		es
2373  FC				cld
2374  BF 96 07				mov		di,0x0796
2377  B9 80 0E				mov		cx,0x0e80
237A  2B CF				sub		cx,di
237C  33 C0				xor		ax,ax
237E  F3 AA				rep stosb
2380  16				push		ss
2381  1F				pop		ds
2382  E8 3B 00				call		L$567
2385  16				push		ss
2386  1F				pop		ds
2387  E8 92 03				call		L$629
238A  E8 01 02				call		L$597
238D  33 ED				xor		bp,bp
238F  FF 36 2C 05			push		word ptr ds:[0x52c]
2393  FF 36 2A 05			push		word ptr ds:[0x52a]
2397  FF 36 28 05			push		word ptr ds:[0x528]
239B  E8 72 DC				call		L$2
239E  50				push		ax
239F  E8 E2 00				call		L$577
23A2  B8 C0 03				mov		ax,0x03c0
23A5  8E D8				mov		ds,ax
23A7  B8 03 00				mov		ax,0x0003
23AA  36 C7 06 98 04 84 24		mov		word ptr ss:[0x498],0x2484
23B1				L$566:
23B1  50				push		ax
23B2  E8 7B 01				call		L$589
23B5  E8 FD 03				call		L$638
23B8  B8 FF 00				mov		ax,0x00ff
23BB  50				push		ax
23BC  FF 16 98 04			call		word ptr ds:[0x498]
23C0				L$567:
23C0  B4 30				mov		ah,0x30
23C2  CD 21				int		0x21
23C4  A3 0D 05				mov		ds:[0x50d],ax
23C7  B8 00 35				mov		ax,0x3500
23CA  CD 21				int		0x21
23CC  89 1E F9 04			mov		ds:[0x4f9],bx
23D0  8C 06 FB 04			mov		word ptr ds:[0x4fb],es
23D4  0E				push		cs
23D5  1F				pop		ds
23D6  B8 00 25				mov		ax,0x2500
23D9  BA A2 23				mov		dx,0x23a2
23DC  CD 21				int		0x21
23DE  16				push		ss
23DF  1F				pop		ds
23E0  8B 0E B0 06			mov		cx,ds:[0x6b0]
23E4  E3 2E				jcxz		L$569
23E6  8E 06 0B 05			mov		es,word ptr ds:[0x50b]
23EA  26 8B 36 2C 00			mov		si,es:[0x2c]
23EF  C5 06 B2 06			lds		ax,ds:[0x6b2]
23F3  8C DA				mov		dx,ds
23F5  33 DB				xor		bx,bx
23F7  36 FF 1E AE 06			call		dword ptr ss:[0x6ae]
23FC  73 05				jae		L$568
23FE  16				push		ss
23FF  1F				pop		ds
2400  E9 4D 01				jmp		L$591
2403				L$568:
2403  36 C5 06 B6 06			lds		ax,ss:[0x6b6]
2408  8C DA				mov		dx,ds
240A  BB 03 00				mov		bx,0x0003
240D  36 FF 1E AE 06			call		dword ptr ss:[0x6ae]
2412  16				push		ss
2413  1F				pop		ds
2414				L$569:
2414  8E 06 0B 05			mov		es,word ptr ds:[0x50b]
2418  26 8B 0E 2C 00			mov		cx,es:[0x2c]
241D  E3 36				jcxz		L$574
241F  8E C1				mov		es,cx
2421  33 FF				xor		di,di
2423				L$570:
2423  26 80 3D 00			cmp		byte ptr es:[di],0x00
2427  74 2C				je		L$574
2429  B9 0C 00				mov		cx,0x000c
242C  BE EC 04				mov		si,0x04ec
242F  F3 A6				repe cmpsb
2431  74 0B				je		L$571
2433  B9 FF 7F				mov		cx,0x7fff
2436  33 C0				xor		ax,ax
2438  F2 AE				repne scasb
243A  75 19				jne		L$574
243C  EB E5				jmp		L$570
243E				L$571:
243E  06				push		es
243F  1E				push		ds
2440  07				pop		es
2441  1F				pop		ds
2442  8B F7				mov		si,di
2444  BF 14 05				mov		di,0x0514
2447  AC				lodsb
2448  98				cbw
2449  91				xchg		ax,cx
244A				L$572:
244A  AC				lodsb
244B  FE C0				inc		al
244D  74 01				je		L$573
244F  48				dec		ax
2450				L$573:
2450  AA				stosb
2451  E2 F7				loop		L$572
2453  16				push		ss
2454  1F				pop		ds
2455				L$574:
2455  BB 04 00				mov		bx,0x0004
2458				L$575:
2458  80 A7 14 05 BF			and		byte ptr 0x514[bx],0xbf
245D  B8 00 44				mov		ax,0x4400
2460  CD 21				int		0x21
2462  72 0A				jb		L$576
2464  F6 C2 80				test		dl,0x80
2467  74 05				je		L$576
2469  80 8F 14 05 40			or		byte ptr 0x514[bx],0x40
246E				L$576:
246E  4B				dec		bx
246F  79 E7				jns		L$575
2471  BE BA 06				mov		si,0x06ba
2474  BF BA 06				mov		di,0x06ba
2477  E8 A2 00				call		L$587
247A  BE BA 06				mov		si,0x06ba
247D  BF BA 06				mov		di,0x06ba
2480  E8 8A 00				call		L$585
2483  C3				ret
2484				L$577:
2484  55				push		bp
2485  8B EC				mov		bp,sp
2487  BE BC 07				mov		si,0x07bc
248A  BF BC 07				mov		di,0x07bc
248D  E8 7D 00				call		L$585
2490  BE BA 06				mov		si,0x06ba
2493  BF BC 06				mov		di,0x06bc
2496  E8 74 00				call		L$585
2499  EB 03				jmp		L$578
249B  55				push		bp
249C  8B EC				mov		bp,sp
249E				L$578:
249E  BE BC 06				mov		si,0x06bc
24A1  BF BC 06				mov		di,0x06bc
24A4  E8 66 00				call		L$585
24A7  BE BC 06				mov		si,0x06bc
24AA  BF BC 06				mov		di,0x06bc
24AD  E8 6C 00				call		L$587
24B0  E8 B9 00				call		L$594
24B3  0B C0				or		ax,ax
24B5  74 0B				je		L$579
24B7  83 7E 04 00			cmp		word ptr 0x4[bp],0x0000
24BB  75 05				jne		L$579
24BD  C7 46 04 FF 00			mov		word ptr 0x4[bp],0x00ff
24C2				L$579:
24C2  B9 0F 00				mov		cx,0x000f
24C5  BB 05 00				mov		bx,0x0005
24C8				L$580:
24C8  F6 87 14 05 01			test		byte ptr 0x514[bx],0x01
24CD  74 04				je		L$581
24CF  B4 3E				mov		ah,0x3e
24D1  CD 21				int		0x21
24D3				L$581:
24D3  43				inc		bx
24D4  E2 F2				loop		L$580
24D6  E8 07 00				call		L$582
24D9  8B 46 04				mov		ax,0x4[bp]
24DC  B4 4C				mov		ah,0x4c
24DE  CD 21				int		0x21
24E0				L$582:
24E0  8B 0E B0 06			mov		cx,ds:[0x6b0]
24E4  E3 07				jcxz		L$583
24E6  BB 02 00				mov		bx,0x0002
24E9  FF 1E AE 06			call		dword ptr ds:[0x6ae]
24ED				L$583:
24ED  1E				push		ds
24EE  C5 16 F9 04			lds		dx,ds:[0x4f9]
24F2  B8 00 25				mov		ax,0x2500
24F5  CD 21				int		0x21
24F7  1F				pop		ds
24F8  80 3E 36 05 00			cmp		byte ptr ds:[0x536],0x00
24FD  74 0D				je		L$584
24FF  1E				push		ds
2500  A0 37 05				mov		al,ds:[0x537]
2503  C5 16 38 05			lds		dx,ds:[0x538]
2507  B4 25				mov		ah,0x25
2509  CD 21				int		0x21
250B  1F				pop		ds
250C				L$584:
250C  C3				ret
250D				L$585:
250D  3B F7				cmp		si,di
250F  73 0A				jae		L$586
2511  4F				dec		di
2512  4F				dec		di
2513  8B 0D				mov		cx,[di]
2515  E3 F6				jcxz		L$585
2517  FF D1				call		cx
2519  EB F2				jmp		L$585
251B				L$586:
251B  C3				ret
251C				L$587:
251C  3B F7				cmp		si,di
251E  73 0E				jae		L$588
2520  83 EF 04				sub		di,0x0004
2523  8B 05				mov		ax,[di]
2525  0B 45 02				or		ax,0x2[di]
2528  74 F2				je		L$587
252A  FF 1D				call		dword ptr [di]
252C  EB EE				jmp		L$587
252E				L$588:
252E  C3				ret
252F  00                                              .
2530				L$589:
2530  55				push		bp
2531  8B EC				mov		bp,sp
2533  B8 FC 00				mov		ax,0x00fc
2536  50				push		ax
2537  E8 7B 02				call		L$638
253A  83 3E 3C 05 00			cmp		word ptr ds:[0x53c],0x0000
253F  74 04				je		L$590
2541  FF 16 3C 05			call		word ptr ds:[0x53c]
2545				L$590:
2545  B8 FF 00				mov		ax,0x00ff
2548  50				push		ax
2549  E8 69 02				call		L$638
254C  8B E5				mov		sp,bp
254E  5D				pop		bp
254F  C3				ret
2550				L$591:
2550  B8 02 00				mov		ax,0x0002
2553  E9 5B FE				jmp		L$566
2556				L$592:
2556  59				pop		cx
2557  8B DC				mov		bx,sp
2559  2B D8				sub		bx,ax
255B  72 0A				jb		L$593
255D  3B 1E 3E 05			cmp		bx,ds:[0x53e]
2561  72 04				jb		L$593
2563  8B E3				mov		sp,bx
2565  FF E1				jmp		cx
2567				L$593:
2567  33 C0				xor		ax,ax
2569  E9 45 FE				jmp		L$566
256C				L$594:
256C  56				push		si
256D  33 F6				xor		si,si
256F  B9 42 00				mov		cx,0x0042
2572  32 E4				xor		ah,ah
2574  FC				cld
2575				L$595:
2575  AC				lodsb
2576  32 E0				xor		ah,al
2578  E2 FB				loop		L$595
257A  80 F4 55				xor		ah,0x55
257D  74 0D				je		L$596
257F  E8 AE FF				call		L$589
2582  B8 01 00				mov		ax,0x0001
2585  50				push		ax
2586  E8 2C 02				call		L$638
2589  B8 01 00				mov		ax,0x0001
258C				L$596:
258C  5E				pop		si
258D  C3				ret
258E				L$597:
258E  8F 06 40 05			pop		word ptr ds:[0x540]
2592  BA 02 00				mov		dx,0x0002
2595  38 16 0D 05			cmp		ds:[0x50d],dl
2599  74 29				je		L$599
259B  8E 06 0B 05			mov		es,word ptr ds:[0x50b]
259F  26 8E 06 2C 00			mov		es,word ptr es:[0x2c]
25A4  8C 06 30 05			mov		word ptr ds:[0x530],es
25A8  33 C0				xor		ax,ax
25AA  99				cwd
25AB  B9 00 80				mov		cx,0x8000
25AE  33 FF				xor		di,di
25B0				L$598:
25B0  F2 AE				repne scasb
25B2  AE				scasb
25B3  75 FB				jne		L$598
25B5  47				inc		di
25B6  47				inc		di
25B7  89 3E 2E 05			mov		ds:[0x52e],di
25BB  B9 FF FF				mov		cx,0xffff
25BE  F2 AE				repne scasb
25C0  F7 D1				not		cx
25C2  8B D1				mov		dx,cx
25C4				L$599:
25C4  BF 01 00				mov		di,0x0001
25C7  BE 81 00				mov		si,0x0081
25CA  8E 1E 0B 05			mov		ds,word ptr ds:[0x50b]
25CE				L$600:
25CE  AC				lodsb
25CF  3C 20				cmp		al,0x20
25D1  74 FB				je		L$600
25D3  3C 09				cmp		al,0x09
25D5  74 F7				je		L$600
25D7  3C 0D				cmp		al,0x0d
25D9  74 6F				je		L$611
25DB  0A C0				or		al,al
25DD  74 6B				je		L$611
25DF  47				inc		di
25E0				L$601:
25E0  4E				dec		si
25E1				L$602:
25E1  AC				lodsb
25E2  3C 20				cmp		al,0x20
25E4  74 E8				je		L$600
25E6  3C 09				cmp		al,0x09
25E8  74 E4				je		L$600
25EA  3C 0D				cmp		al,0x0d
25EC  74 5C				je		L$611
25EE  0A C0				or		al,al
25F0  74 58				je		L$611
25F2  3C 22				cmp		al,0x22
25F4  74 24				je		L$607
25F6  3C 5C				cmp		al,0x5c
25F8  74 03				je		L$603
25FA  42				inc		dx
25FB  EB E4				jmp		L$602
25FD				L$603:
25FD  33 C9				xor		cx,cx
25FF				L$604:
25FF  41				inc		cx
2600  AC				lodsb
2601  3C 5C				cmp		al,0x5c
2603  74 FA				je		L$604
2605  3C 22				cmp		al,0x22
2607  74 04				je		L$605
2609  03 D1				add		dx,cx
260B  EB D3				jmp		L$601
260D				L$605:
260D  8B C1				mov		ax,cx
260F  D1 E9				shr		cx,0x01
2611  13 D1				adc		dx,cx
2613  A8 01				test		al,0x01
2615  75 CA				jne		L$602
2617  EB 01				jmp		L$607
2619				L$606:
2619  4E				dec		si
261A				L$607:
261A  AC				lodsb
261B  3C 0D				cmp		al,0x0d
261D  74 2B				je		L$611
261F  0A C0				or		al,al
2621  74 27				je		L$611
2623  3C 22				cmp		al,0x22
2625  74 BA				je		L$602
2627  3C 5C				cmp		al,0x5c
2629  74 03				je		L$608
262B  42				inc		dx
262C  EB EC				jmp		L$607
262E				L$608:
262E  33 C9				xor		cx,cx
2630				L$609:
2630  41				inc		cx
2631  AC				lodsb
2632  3C 5C				cmp		al,0x5c
2634  74 FA				je		L$609
2636  3C 22				cmp		al,0x22
2638  74 04				je		L$610
263A  03 D1				add		dx,cx
263C  EB DB				jmp		L$606
263E				L$610:
263E  8B C1				mov		ax,cx
2640  D1 E9				shr		cx,0x01
2642  13 D1				adc		dx,cx
2644  A8 01				test		al,0x01
2646  75 D2				jne		L$607
2648  EB 97				jmp		L$602
264A				L$611:
264A  16				push		ss
264B  1F				pop		ds
264C  89 3E 28 05			mov		ds:[0x528],di
2650  03 D7				add		dx,di
2652  47				inc		di
2653  D1 E7				shl		di,0x01
2655  03 D7				add		dx,di
2657  80 E2 FE				and		dl,0xfe
265A  2B E2				sub		sp,dx
265C  8B C4				mov		ax,sp
265E  A3 2A 05				mov		ds:[0x52a],ax
2661  8B D8				mov		bx,ax
2663  03 FB				add		di,bx
2665  16				push		ss
2666  07				pop		es
2667  36 89 3F				mov		ss:[bx],di
266A  43				inc		bx
266B  43				inc		bx
266C  C5 36 2E 05			lds		si,ds:[0x52e]
2670				L$612:
2670  AC				lodsb
2671  AA				stosb
2672  0A C0				or		al,al
2674  75 FA				jne		L$612
2676  BE 81 00				mov		si,0x0081
2679  36 8E 1E 0B 05			mov		ds,word ptr ss:[0x50b]
267E  EB 03				jmp		L$614
2680				L$613:
2680  33 C0				xor		ax,ax
2682  AA				stosb
2683				L$614:
2683  AC				lodsb
2684  3C 20				cmp		al,0x20
2686  74 FB				je		L$614
2688  3C 09				cmp		al,0x09
268A  74 F7				je		L$614
268C  3C 0D				cmp		al,0x0d
268E  75 03				jne		L$615
2690  E9 7F 00				jmp		L$628
2693				L$615:
2693  0A C0				or		al,al
2695  75 03				jne		L$616
2697  EB 79				jmp		L$628
2699  90				nop
269A				L$616:
269A  36 89 3F				mov		ss:[bx],di
269D  43				inc		bx
269E  43				inc		bx
269F				L$617:
269F  4E				dec		si
26A0				L$618:
26A0  AC				lodsb
26A1  3C 20				cmp		al,0x20
26A3  74 DB				je		L$613
26A5  3C 09				cmp		al,0x09
26A7  74 D7				je		L$613
26A9  3C 0D				cmp		al,0x0d
26AB  74 62				je		L$627
26AD  0A C0				or		al,al
26AF  74 5E				je		L$627
26B1  3C 22				cmp		al,0x22
26B3  74 27				je		L$623
26B5  3C 5C				cmp		al,0x5c
26B7  74 03				je		L$619
26B9  AA				stosb
26BA  EB E4				jmp		L$618
26BC				L$619:
26BC  33 C9				xor		cx,cx
26BE				L$620:
26BE  41				inc		cx
26BF  AC				lodsb
26C0  3C 5C				cmp		al,0x5c
26C2  74 FA				je		L$620
26C4  3C 22				cmp		al,0x22
26C6  74 06				je		L$621
26C8  B0 5C				mov		al,0x5c
26CA  F3 AA				rep stosb
26CC  EB D1				jmp		L$617
26CE				L$621:
26CE  B0 5C				mov		al,0x5c
26D0  D1 E9				shr		cx,0x01
26D2  F3 AA				rep stosb
26D4  73 06				jae		L$623
26D6  B0 22				mov		al,0x22
26D8  AA				stosb
26D9  EB C5				jmp		L$618
26DB				L$622:
26DB  4E				dec		si
26DC				L$623:
26DC  AC				lodsb
26DD  3C 0D				cmp		al,0x0d
26DF  74 2E				je		L$627
26E1  0A C0				or		al,al
26E3  74 2A				je		L$627
26E5  3C 22				cmp		al,0x22
26E7  74 B7				je		L$618
26E9  3C 5C				cmp		al,0x5c
26EB  74 03				je		L$624
26ED  AA				stosb
26EE  EB EC				jmp		L$623
26F0				L$624:
26F0  33 C9				xor		cx,cx
26F2				L$625:
26F2  41				inc		cx
26F3  AC				lodsb
26F4  3C 5C				cmp		al,0x5c
26F6  74 FA				je		L$625
26F8  3C 22				cmp		al,0x22
26FA  74 06				je		L$626
26FC  B0 5C				mov		al,0x5c
26FE  F3 AA				rep stosb
2700  EB D9				jmp		L$622
2702				L$626:
2702  B0 5C				mov		al,0x5c
2704  D1 E9				shr		cx,0x01
2706  F3 AA				rep stosb
2708  73 96				jae		L$618
270A  B0 22				mov		al,0x22
270C  AA				stosb
270D  EB CD				jmp		L$623
270F				L$627:
270F  33 C0				xor		ax,ax
2711  AA				stosb
2712				L$628:
2712  16				push		ss
2713  1F				pop		ds
2714  C7 07 00 00			mov		word ptr [bx],0x0000
2718  FF 26 40 05			jmp		word ptr ds:[0x540]
271C				L$629:
271C  55				push		bp
271D  8B EC				mov		bp,sp
271F  55				push		bp
2720  8E 1E 0B 05			mov		ds,word ptr ds:[0x50b]
2724  33 C9				xor		cx,cx
2726  8B C1				mov		ax,cx
2728  8B E9				mov		bp,cx
272A  8B F9				mov		di,cx
272C  49				dec		cx
272D  8B 36 2C 00			mov		si,ds:[0x2c]
2731  0B F6				or		si,si
2733  74 10				je		L$631
2735  8E C6				mov		es,si
2737  26 80 3E 00 00 00			cmp		byte ptr es:[0x0],0x00
273D  74 06				je		L$631
273F				L$630:
273F  F2 AE				repne scasb
2741  45				inc		bp
2742  AE				scasb
2743  75 FA				jne		L$630
2745				L$631:
2745  45				inc		bp
2746  97				xchg		ax,di
2747  40				inc		ax
2748  24 FE				and		al,0xfe
274A  8B FD				mov		di,bp
274C  D1 E5				shl		bp,0x01
274E  03 C5				add		ax,bp
2750  16				push		ss
2751  1F				pop		ds
2752  57				push		di
2753  BF 09 00				mov		di,0x0009
2756  E8 85 00				call		L$640
2759  5F				pop		di
275A  8B CF				mov		cx,di
275C  8B FD				mov		di,bp
275E  03 F8				add		di,ax
2760  89 2E 2C 05			mov		ds:[0x52c],bp
2764  1E				push		ds
2765  07				pop		es
2766  8E DE				mov		ds,si
2768  33 F6				xor		si,si
276A  49				dec		cx
276B  E3 13				jcxz		L$634
276D				L$632:
276D  81 3C 3B 43			cmp		word ptr [si],0x433b
2771  74 05				je		L$633
2773  89 7E 00				mov		[bp],di
2776  45				inc		bp
2777  45				inc		bp
2778				L$633:
2778  AC				lodsb
2779  AA				stosb
277A  0A C0				or		al,al
277C  75 FA				jne		L$633
277E  E2 ED				loop		L$632
2780				L$634:
2780  89 4E 00				mov		[bp],cx
2783  16				push		ss
2784  1F				pop		ds
2785  5D				pop		bp
2786  8B E5				mov		sp,bp
2788  5D				pop		bp
2789  C3				ret
278A				L$635:
278A  55				push		bp
278B  8B EC				mov		bp,sp
278D  56				push		si
278E  57				push		di
278F  1E				push		ds
2790  07				pop		es
2791  8B 56 04				mov		dx,0x4[bp]
2794  BE C4 06				mov		si,0x06c4
2797				L$636:
2797  AD				lodsw
2798  3B C2				cmp		ax,dx
279A  74 10				je		L$637
279C  40				inc		ax
279D  96				xchg		ax,si
279E  74 0C				je		L$637
27A0  97				xchg		ax,di
27A1  33 C0				xor		ax,ax
27A3  B9 FF FF				mov		cx,0xffff
27A6  F2 AE				repne scasb
27A8  8B F7				mov		si,di
27AA  EB EB				jmp		L$636
27AC				L$637:
27AC  96				xchg		ax,si
27AD  5F				pop		di
27AE  5E				pop		si
27AF  8B E5				mov		sp,bp
27B1  5D				pop		bp
27B2  C2 02 00				ret		0x0002
27B5				L$638:
27B5  55				push		bp
27B6  8B EC				mov		bp,sp
27B8  57				push		di
27B9  FF 76 04				push		word ptr 0x4[bp]
27BC  E8 CB FF				call		L$635
27BF  0B C0				or		ax,ax
27C1  74 14				je		L$639
27C3  92				xchg		ax,dx
27C4  8B FA				mov		di,dx
27C6  33 C0				xor		ax,ax
27C8  B9 FF FF				mov		cx,0xffff
27CB  F2 AE				repne scasb
27CD  F7 D1				not		cx
27CF  49				dec		cx
27D0  BB 02 00				mov		bx,0x0002
27D3  B4 40				mov		ah,0x40
27D5  CD 21				int		0x21
27D7				L$639:
27D7  5F				pop		di
27D8  8B E5				mov		sp,bp
27DA  5D				pop		bp
27DB  C2 02 00				ret		0x0002
27DE				L$640:
27DE  8B D0				mov		dx,ax
27E0  03 06 9A 04			add		ax,ds:[0x49a]
27E4  72 35				jb		L$642
27E6  39 06 94 04			cmp		ds:[0x494],ax
27EA  73 25				jae		L$641
27EC  05 0F 00				add		ax,0x000f
27EF  50				push		ax
27F0  D1 D8				rcr		ax,0x01
27F2  B1 03				mov		cl,0x03
27F4  D3 E8				shr		ax,cl
27F6  8C D9				mov		cx,ds
27F8  8B 1E 0B 05			mov		bx,ds:[0x50b]
27FC  2B CB				sub		cx,bx
27FE  03 C1				add		ax,cx
2800  8E C3				mov		es,bx
2802  8B D8				mov		bx,ax
2804  B4 4A				mov		ah,0x4a
2806  CD 21				int		0x21
2808  58				pop		ax
2809  72 10				jb		L$642
280B  24 F0				and		al,0xf0
280D  48				dec		ax
280E  A3 94 04				mov		ds:[0x494],ax
2811				L$641:
2811  95				xchg		ax,bp
2812  8B 2E 9A 04			mov		bp,ds:[0x49a]
2816  01 16 9A 04			add		ds:[0x49a],dx
281A  C3				ret
281B				L$642:
281B  8B C7				mov		ax,di
281D  E9 91 FB				jmp		L$566
2820				L$643:
2820  72 13				jb		L$646
2822				L$644:
2822  33 C0				xor		ax,ax
2824  8B E5				mov		sp,bp
2826  5D				pop		bp
2827  C3				ret
2828  73 F8				jae		L$644
282A  50				push		ax
282B  E8 18 00				call		L$649
282E  58				pop		ax
282F  8B E5				mov		sp,bp
2831  5D				pop		bp
2832  C3				ret
2833				L$645:
2833  73 07				jae		L$647
2835				L$646:
2835  E8 0E 00				call		L$649
2838  B8 FF FF				mov		ax,0xffff
283B  99				cwd
283C				L$647:
283C  8B E5				mov		sp,bp
283E  5D				pop		bp
283F  C3				ret
2840				L$648:
2840  32 E4				xor		ah,ah
2842  E8 01 00				call		L$649
2845  C3				ret
2846				L$649:
2846  A2 10 05				mov		ds:[0x510],al
2849  0A E4				or		ah,ah
284B  75 23				jne		L$654
284D  80 3E 0D 05 03			cmp		byte ptr ds:[0x50d],0x03
2852  72 0D				jb		L$650
2854  3C 22				cmp		al,0x22
2856  73 0D				jae		L$651
2858  3C 20				cmp		al,0x20
285A  72 05				jb		L$650
285C  B0 05				mov		al,0x05
285E  EB 07				jmp		L$652
2860  90				nop
2861				L$650:
2861  3C 13				cmp		al,0x13
2863  76 02				jbe		L$652
2865				L$651:
2865  B0 13				mov		al,0x13
2867				L$652:
2867  BB 42 05				mov		bx,0x0542
286A  D7				xlatb
286B				L$653:
286B  98				cbw
286C  A3 05 05				mov		ds:[0x505],ax
286F  C3				ret
2870				L$654:
2870  8A C4				mov		al,ah
2872  EB F7				jmp		L$653
2874  55				push		bp
2875  8B EC				mov		bp,sp
2877  83 EC 04				sub		sp,0x0004
287A  57				push		di
287B  56				push		si
287C  BE 58 05				mov		si,0x0558
287F  2B FF				sub		di,di
2881  EB 15				jmp		L$657
2883  90				nop
2884				L$655:
2884  F6 44 06 83			test		byte ptr 0x6[si],0x83
2888  74 0B				je		L$656
288A  56				push		si
288B  E8 30 03				call		L$688
288E  83 C4 02				add		sp,0x0002
2891  40				inc		ax
2892  74 01				je		L$656
2894  47				inc		di
2895				L$656:
2895  83 C6 08				add		si,0x0008
2898				L$657:
2898  39 36 70 06			cmp		ds:[0x670],si
289C  73 E6				jae		L$655
289E  8B C7				mov		ax,di
28A0  5E				pop		si
28A1  5F				pop		di
28A2  8B E5				mov		sp,bp
28A4  5D				pop		bp
28A5  C3				ret
28A6				L$658:
28A6  55				push		bp
28A7  8B EC				mov		bp,sp
28A9  83 EC 08				sub		sp,0x0008
28AC  57				push		di
28AD  56				push		si
28AE  BE 60 05				mov		si,0x0560
28B1  8D 46 06				lea		ax,0x6[bp]
28B4  89 46 FC				mov		-0x4[bp],ax
28B7  56				push		si
28B8  E8 E9 01				call		L$677
28BB  83 C4 02				add		sp,0x0002
28BE  8B F8				mov		di,ax
28C0  8D 46 06				lea		ax,0x6[bp]
28C3  50				push		ax
28C4  FF 76 04				push		word ptr 0x4[bp]
28C7  56				push		si
28C8  E8 61 03				call		L$691
28CB  83 C4 06				add		sp,0x0006
28CE  89 46 F8				mov		-0x8[bp],ax
28D1  56				push		si
28D2  57				push		di
28D3  E8 52 02				call		L$683
28D6  83 C4 04				add		sp,0x0004
28D9  8B 46 F8				mov		ax,-0x8[bp]
28DC  5E				pop		si
28DD  5F				pop		di
28DE  8B E5				mov		sp,bp
28E0  5D				pop		bp
28E1  C3				ret
28E2				L$659:
28E2  55				push		bp
28E3  8B EC				mov		bp,sp
28E5  83 EC 08				sub		sp,0x0008
28E8  57				push		di
28E9  56				push		si
28EA  8B 76 06				mov		si,0x6[bp]
28ED  8A 44 07				mov		al,0x7[si]
28F0  98				cbw
28F1  89 46 FA				mov		-0x6[bp],ax
28F4  8B C6				mov		ax,si
28F6  2D 58 05				sub		ax,0x0558
28F9  B1 03				mov		cl,0x03
28FB  D3 F8				sar		ax,cl
28FD  8B C8				mov		cx,ax
28FF  D1 E0				shl		ax,0x01
2901  03 C1				add		ax,cx
2903  D1 E0				shl		ax,0x01
2905  05 F8 05				add		ax,0x05f8
2908  89 46 F8				mov		-0x8[bp],ax
290B  F6 44 06 83			test		byte ptr 0x6[si],0x83
290F  74 06				je		L$660
2911  F6 44 06 40			test		byte ptr 0x6[si],0x40
2915  74 0B				je		L$661
2917				L$660:
2917  80 4C 06 20			or		byte ptr 0x6[si],0x20
291B  B8 FF FF				mov		ax,0xffff
291E  E9 10 01				jmp		L$673
2921  90				nop
2922				L$661:
2922  F6 44 06 01			test		byte ptr 0x6[si],0x01
2926  75 EF				jne		L$660
2928  80 4C 06 02			or		byte ptr 0x6[si],0x02
292C  80 64 06 EF			and		byte ptr 0x6[si],0xef
2930  2B C0				sub		ax,ax
2932  89 44 02				mov		0x2[si],ax
2935  8B F8				mov		di,ax
2937  89 7E FC				mov		-0x4[bp],di
293A  F6 44 06 0C			test		byte ptr 0x6[si],0x0c
293E  75 5F				jne		L$666
2940  8B DE				mov		bx,si
2942  81 EB 58 05			sub		bx,0x0558
2946  B1 03				mov		cl,0x03
2948  D3 FB				sar		bx,cl
294A  8B C3				mov		ax,bx
294C  D1 E3				shl		bx,0x01
294E  03 D8				add		bx,ax
2950  D1 E3				shl		bx,0x01
2952  F6 87 F8 05 01			test		byte ptr 0x5f8[bx],0x01
2957  75 46				jne		L$666
2959  81 FE 60 05			cmp		si,0x0560
295D  74 06				je		L$662
295F  81 FE 68 05			cmp		si,0x0568
2963  75 33				jne		L$665
2965				L$662:
2965  FF 76 FA				push		word ptr -0x6[bp]
2968  E8 B9 10				call		L$919
296B  83 C4 02				add		sp,0x0002
296E  0B C0				or		ax,ax
2970  75 2D				jne		L$666
2972  FF 06 56 05			inc		word ptr ds:[0x556]
2976  81 FE 60 05			cmp		si,0x0560
297A  75 06				jne		L$663
297C  B8 DC 07				mov		ax,0x07dc
297F  EB 04				jmp		L$664
2981  90				nop
2982				L$663:
2982  B8 7C 0C				mov		ax,0x0c7c
2985				L$664:
2985  89 44 04				mov		0x4[si],ax
2988  89 04				mov		[si],ax
298A  8B 5E F8				mov		bx,-0x8[bp]
298D  C7 47 02 00 02			mov		word ptr 0x2[bx],0x0200
2992  C6 07 01				mov		byte ptr [bx],0x01
2995  EB 08				jmp		L$666
2997  90				nop
2998				L$665:
2998  56				push		si
2999  E8 9C 00				call		L$674
299C  83 C4 02				add		sp,0x0002
299F				L$666:
299F  F6 44 06 08			test		byte ptr 0x6[si],0x08
29A3  75 19				jne		L$667
29A5  8B DE				mov		bx,si
29A7  81 EB 58 05			sub		bx,0x0558
29AB  B1 03				mov		cl,0x03
29AD  D3 FB				sar		bx,cl
29AF  8B C3				mov		ax,bx
29B1  D1 E3				shl		bx,0x01
29B3  03 D8				add		bx,ax
29B5  D1 E3				shl		bx,0x01
29B7  F6 87 F8 05 01			test		byte ptr 0x5f8[bx],0x01
29BC  74 50				je		L$670
29BE				L$667:
29BE  8B 3C				mov		di,[si]
29C0  2B 7C 04				sub		di,0x4[si]
29C3  8B 44 04				mov		ax,0x4[si]
29C6  40				inc		ax
29C7  89 04				mov		[si],ax
29C9  8B 5E F8				mov		bx,-0x8[bp]
29CC  8B 47 02				mov		ax,0x2[bx]
29CF  48				dec		ax
29D0  89 44 02				mov		0x2[si],ax
29D3  0B FF				or		di,di
29D5  7E 13				jle		L$668
29D7  57				push		di
29D8  FF 74 04				push		word ptr 0x4[si]
29DB  FF 76 FA				push		word ptr -0x6[bp]
29DE  E8 8D 0B				call		L$831
29E1  83 C4 06				add		sp,0x0006
29E4  89 46 FC				mov		-0x4[bp],ax
29E7  EB 1A				jmp		L$669
29E9  90				nop
29EA				L$668:
29EA  8B 5E FA				mov		bx,-0x6[bp]
29ED  F6 87 14 05 20			test		byte ptr 0x514[bx],0x20
29F2  74 0F				je		L$669
29F4  B8 02 00				mov		ax,0x0002
29F7  50				push		ax
29F8  2B C0				sub		ax,ax
29FA  50				push		ax
29FB  50				push		ax
29FC  53				push		bx
29FD  E8 F4 0A				call		L$824
2A00  83 C4 08				add		sp,0x0008
2A03				L$669:
2A03  8B 5C 04				mov		bx,0x4[si]
2A06  8A 46 04				mov		al,0x4[bp]
2A09  88 07				mov		[bx],al
2A0B  EB 17				jmp		L$671
2A0D  90				nop
2A0E				L$670:
2A0E  BF 01 00				mov		di,0x0001
2A11  8B C7				mov		ax,di
2A13  50				push		ax
2A14  8D 46 04				lea		ax,0x4[bp]
2A17  50				push		ax
2A18  FF 76 FA				push		word ptr -0x6[bp]
2A1B  E8 50 0B				call		L$831
2A1E  83 C4 06				add		sp,0x0006
2A21  89 46 FC				mov		-0x4[bp],ax
2A24				L$671:
2A24  39 7E FC				cmp		-0x4[bp],di
2A27  74 03				je		L$672
2A29  E9 EB FE				jmp		L$660
2A2C				L$672:
2A2C  8A 46 04				mov		al,0x4[bp]
2A2F  2A E4				sub		ah,ah
2A31				L$673:
2A31  5E				pop		si
2A32  5F				pop		di
2A33  8B E5				mov		sp,bp
2A35  5D				pop		bp
2A36  C3				ret
2A37  90				nop
2A38				L$674:
2A38  55				push		bp
2A39  8B EC				mov		bp,sp
2A3B  83 EC 02				sub		sp,0x0002
2A3E  56				push		si
2A3F  8B 46 04				mov		ax,0x4[bp]
2A42  2D 58 05				sub		ax,0x0558
2A45  B1 03				mov		cl,0x03
2A47  D3 F8				sar		ax,cl
2A49  8B C8				mov		cx,ax
2A4B  D1 E0				shl		ax,0x01
2A4D  03 C1				add		ax,cx
2A4F  D1 E0				shl		ax,0x01
2A51  05 F8 05				add		ax,0x05f8
2A54  89 46 FE				mov		-0x2[bp],ax
2A57  B8 00 02				mov		ax,0x0200
2A5A  50				push		ax
2A5B  E8 5C 0C				call		L$862
2A5E  83 C4 02				add		sp,0x0002
2A61  8B 5E 04				mov		bx,0x4[bp]
2A64  89 47 04				mov		0x4[bx],ax
2A67  0B C0				or		ax,ax
2A69  74 0F				je		L$675
2A6B  80 4F 06 08			or		byte ptr 0x6[bx],0x08
2A6F  8B 5E FE				mov		bx,-0x2[bp]
2A72  C7 47 02 00 02			mov		word ptr 0x2[bx],0x0200
2A77  EB 17				jmp		L$676
2A79  90				nop
2A7A				L$675:
2A7A  8B 5E 04				mov		bx,0x4[bp]
2A7D  80 4F 06 04			or		byte ptr 0x6[bx],0x04
2A81  8B 46 FE				mov		ax,-0x2[bp]
2A84  40				inc		ax
2A85  89 47 04				mov		0x4[bx],ax
2A88  8B 5E FE				mov		bx,-0x2[bp]
2A8B  C7 47 02 01 00			mov		word ptr 0x2[bx],0x0001
2A90				L$676:
2A90  8B 5E 04				mov		bx,0x4[bp]
2A93  8B F3				mov		si,bx
2A95  8B 44 04				mov		ax,0x4[si]
2A98  89 07				mov		[bx],ax
2A9A  C7 47 02 00 00			mov		word ptr 0x2[bx],0x0000
2A9F  5E				pop		si
2AA0  8B E5				mov		sp,bp
2AA2  5D				pop		bp
2AA3  C3				ret
2AA4				L$677:
2AA4  55				push		bp
2AA5  8B EC				mov		bp,sp
2AA7  83 EC 04				sub		sp,0x0004
2AAA  56				push		si
2AAB  8B 76 04				mov		si,0x4[bp]
2AAE  FF 06 56 05			inc		word ptr ds:[0x556]
2AB2  81 FE 60 05			cmp		si,0x0560
2AB6  75 08				jne		L$678
2AB8  C7 46 FE DC 07			mov		word ptr -0x2[bp],0x07dc
2ABD  EB 0C				jmp		L$679
2ABF  90				nop
2AC0				L$678:
2AC0  81 FE 68 05			cmp		si,0x0568
2AC4  75 24				jne		L$680
2AC6  C7 46 FE 7C 0C			mov		word ptr -0x2[bp],0x0c7c
2ACB				L$679:
2ACB  F6 44 06 0C			test		byte ptr 0x6[si],0x0c
2ACF  75 19				jne		L$680
2AD1  8B DE				mov		bx,si
2AD3  81 EB 58 05			sub		bx,0x0558
2AD7  B1 03				mov		cl,0x03
2AD9  D3 FB				sar		bx,cl
2ADB  8B C3				mov		ax,bx
2ADD  D1 E3				shl		bx,0x01
2ADF  03 D8				add		bx,ax
2AE1  D1 E3				shl		bx,0x01
2AE3  F6 87 F8 05 01			test		byte ptr 0x5f8[bx],0x01
2AE8  74 04				je		L$681
2AEA				L$680:
2AEA  2B C0				sub		ax,ax
2AEC  EB 35				jmp		L$682
2AEE				L$681:
2AEE  8B C6				mov		ax,si
2AF0  2D 58 05				sub		ax,0x0558
2AF3  B1 03				mov		cl,0x03
2AF5  D3 F8				sar		ax,cl
2AF7  8B C8				mov		cx,ax
2AF9  D1 E0				shl		ax,0x01
2AFB  03 C1				add		ax,cx
2AFD  D1 E0				shl		ax,0x01
2AFF  05 F8 05				add		ax,0x05f8
2B02  89 46 FC				mov		-0x4[bp],ax
2B05  8B 46 FE				mov		ax,-0x2[bp]
2B08  89 44 04				mov		0x4[si],ax
2B0B  89 04				mov		[si],ax
2B0D  8B 5E FC				mov		bx,-0x4[bp]
2B10  B8 00 02				mov		ax,0x0200
2B13  89 47 02				mov		0x2[bx],ax
2B16  89 44 02				mov		0x2[si],ax
2B19  C6 07 01				mov		byte ptr [bx],0x01
2B1C  80 4C 06 02			or		byte ptr 0x6[si],0x02
2B20  B8 01 00				mov		ax,0x0001
2B23				L$682:
2B23  5E				pop		si
2B24  8B E5				mov		sp,bp
2B26  5D				pop		bp
2B27  C3				ret
2B28				L$683:
2B28  55				push		bp
2B29  8B EC				mov		bp,sp
2B2B  83 EC 02				sub		sp,0x0002
2B2E  56				push		si
2B2F  83 7E 04 00			cmp		word ptr 0x4[bp],0x0000
2B33  74 5B				je		L$685
2B35  81 7E 06 60 05			cmp		word ptr 0x6[bp],0x0560
2B3A  74 07				je		L$684
2B3C  81 7E 06 68 05			cmp		word ptr 0x6[bp],0x0568
2B41  75 76				jne		L$687
2B43				L$684:
2B43  8B 5E 06				mov		bx,0x6[bp]
2B46  8A 47 07				mov		al,0x7[bx]
2B49  98				cbw
2B4A  50				push		ax
2B4B  E8 D6 0E				call		L$919
2B4E  83 C4 02				add		sp,0x0002
2B51  0B C0				or		ax,ax
2B53  74 64				je		L$687
2B55  8B 46 06				mov		ax,0x6[bp]
2B58  2D 58 05				sub		ax,0x0558
2B5B  B1 03				mov		cl,0x03
2B5D  D3 F8				sar		ax,cl
2B5F  8B C8				mov		cx,ax
2B61  D1 E0				shl		ax,0x01
2B63  03 C1				add		ax,cx
2B65  D1 E0				shl		ax,0x01
2B67  05 F8 05				add		ax,0x05f8
2B6A  89 46 FE				mov		-0x2[bp],ax
2B6D  FF 76 06				push		word ptr 0x6[bp]
2B70  E8 4B 00				call		L$688
2B73  83 C4 02				add		sp,0x0002
2B76  8B 5E FE				mov		bx,-0x2[bp]
2B79  C6 07 00				mov		byte ptr [bx],0x00
2B7C  C7 47 02 00 00			mov		word ptr 0x2[bx],0x0000
2B81  8B 5E 06				mov		bx,0x6[bp]
2B84  8B F3				mov		si,bx
2B86  2B C0				sub		ax,ax
2B88  89 04				mov		[si],ax
2B8A  89 47 04				mov		0x4[bx],ax
2B8D  EB 2A				jmp		L$687
2B8F  90				nop
2B90				L$685:
2B90  8B 5E 06				mov		bx,0x6[bp]
2B93  81 7F 04 DC 07			cmp		word ptr 0x4[bx],0x07dc
2B98  74 07				je		L$686
2B9A  81 7F 04 7C 0C			cmp		word ptr 0x4[bx],0x0c7c
2B9F  75 18				jne		L$687
2BA1				L$686:
2BA1  8A 47 07				mov		al,0x7[bx]
2BA4  98				cbw
2BA5  50				push		ax
2BA6  E8 7B 0E				call		L$919
2BA9  83 C4 02				add		sp,0x0002
2BAC  0B C0				or		ax,ax
2BAE  74 09				je		L$687
2BB0  FF 76 06				push		word ptr 0x6[bp]
2BB3  E8 08 00				call		L$688
2BB6  83 C4 02				add		sp,0x0002
2BB9				L$687:
2BB9  5E				pop		si
2BBA  8B E5				mov		sp,bp
2BBC  5D				pop		bp
2BBD  C3				ret
2BBE				L$688:
2BBE  55				push		bp
2BBF  8B EC				mov		bp,sp
2BC1  83 EC 04				sub		sp,0x0004
2BC4  57				push		di
2BC5  56				push		si
2BC6  8B 76 04				mov		si,0x4[bp]
2BC9  2B FF				sub		di,di
2BCB  8A 44 06				mov		al,0x6[si]
2BCE  24 03				and		al,0x03
2BD0  3C 02				cmp		al,0x02
2BD2  75 46				jne		L$690
2BD4  F6 44 06 08			test		byte ptr 0x6[si],0x08
2BD8  75 19				jne		L$689
2BDA  8B DE				mov		bx,si
2BDC  81 EB 58 05			sub		bx,0x0558
2BE0  B1 03				mov		cl,0x03
2BE2  D3 FB				sar		bx,cl
2BE4  8B C3				mov		ax,bx
2BE6  D1 E3				shl		bx,0x01
2BE8  03 D8				add		bx,ax
2BEA  D1 E3				shl		bx,0x01
2BEC  F6 87 F8 05 01			test		byte ptr 0x5f8[bx],0x01
2BF1  74 27				je		L$690
2BF3				L$689:
2BF3  8B 04				mov		ax,[si]
2BF5  2B 44 04				sub		ax,0x4[si]
2BF8  89 46 FC				mov		-0x4[bp],ax
2BFB  0B C0				or		ax,ax
2BFD  7E 1B				jle		L$690
2BFF  50				push		ax
2C00  FF 74 04				push		word ptr 0x4[si]
2C03  8A 44 07				mov		al,0x7[si]
2C06  98				cbw
2C07  50				push		ax
2C08  E8 63 09				call		L$831
2C0B  83 C4 06				add		sp,0x0006
2C0E  3B 46 FC				cmp		ax,-0x4[bp]
2C11  74 07				je		L$690
2C13  80 4C 06 20			or		byte ptr 0x6[si],0x20
2C17  BF FF FF				mov		di,0xffff
2C1A				L$690:
2C1A  8B 44 04				mov		ax,0x4[si]
2C1D  89 04				mov		[si],ax
2C1F  C7 44 02 00 00			mov		word ptr 0x2[si],0x0000
2C24  8B C7				mov		ax,di
2C26  5E				pop		si
2C27  5F				pop		di
2C28  8B E5				mov		sp,bp
2C2A  5D				pop		bp
2C2B  C3				ret
2C2C				L$691:
2C2C  55				push		bp
2C2D  8B EC				mov		bp,sp
2C2F  B8 64 01				mov		ax,0x0164
2C32  E8 21 F9				call		L$592
2C35  57				push		di
2C36  56				push		si
2C37  8B 76 06				mov		si,0x6[bp]
2C3A  8D 86 9E FE			lea		ax,-0x162[bp]
2C3E  A3 B4 07				mov		ds:[0x7b4],ax
2C41  8B 46 08				mov		ax,0x8[bp]
2C44  A3 A4 07				mov		ds:[0x7a4],ax
2C47  8B 46 04				mov		ax,0x4[bp]
2C4A  A3 98 07				mov		ds:[0x798],ax
2C4D  C7 06 AE 07 00 00			mov		word ptr ds:[0x7ae],0x0000
2C53  C7 06 AC 07 00 00			mov		word ptr ds:[0x7ac],0x0000
2C59  E9 7C 02				jmp		L$729
2C5C				L$692:
2C5C  80 3C 25				cmp		byte ptr [si],0x25
2C5F  74 03				je		L$693
2C61  E9 58 02				jmp		L$726
2C64				L$693:
2C64  C7 06 B0 07 01 00			mov		word ptr ds:[0x7b0],0x0001
2C6A  2B C0				sub		ax,ax
2C6C  A3 A0 07				mov		ds:[0x7a0],ax
2C6F  A3 9C 07				mov		ds:[0x79c],ax
2C72  A3 AA 07				mov		ds:[0x7aa],ax
2C75  A3 9E 07				mov		ds:[0x79e],ax
2C78  A3 A8 07				mov		ds:[0x7a8],ax
2C7B  A3 A6 07				mov		ds:[0x7a6],ax
2C7E  A3 9A 07				mov		ds:[0x79a],ax
2C81  A3 96 07				mov		ds:[0x796],ax
2C84  A3 A2 07				mov		ds:[0x7a2],ax
2C87  C7 06 BA 07 20 00			mov		word ptr ds:[0x7ba],0x0020
2C8D  80 7C 01 30			cmp		byte ptr 0x1[si],0x30
2C91  75 3C				jne		L$698
2C93  46				inc		si
2C94  C7 06 BA 07 30 00			mov		word ptr ds:[0x7ba],0x0030
2C9A  EB 33				jmp		L$698
2C9C				L$694:
2C9C  80 3C 2B				cmp		byte ptr [si],0x2b
2C9F  75 0D				jne		L$695
2CA1  FF 06 A0 07			inc		word ptr ds:[0x7a0]
2CA5  C7 06 A6 07 00 00			mov		word ptr ds:[0x7a6],0x0000
2CAB  EB 22				jmp		L$698
2CAD  90				nop
2CAE				L$695:
2CAE  80 3C 20				cmp		byte ptr [si],0x20
2CB1  75 0D				jne		L$696
2CB3  83 3E A0 07 00			cmp		word ptr ds:[0x7a0],0x0000
2CB8  75 15				jne		L$698
2CBA  FF 06 A6 07			inc		word ptr ds:[0x7a6]
2CBE  EB 0F				jmp		L$698
2CC0				L$696:
2CC0  FF 06 96 07			inc		word ptr ds:[0x796]
2CC4  EB 09				jmp		L$698
2CC6				L$697:
2CC6  80 3C 2D				cmp		byte ptr [si],0x2d
2CC9  75 D1				jne		L$694
2CCB  FF 06 A2 07			inc		word ptr ds:[0x7a2]
2CCF				L$698:
2CCF  46				inc		si
2CD0  8A 04				mov		al,[si]
2CD2  98				cbw
2CD3  50				push		ax
2CD4  E8 F5 07				call		L$819
2CD7  83 C4 02				add		sp,0x0002
2CDA  0B C0				or		ax,ax
2CDC  75 E8				jne		L$697
2CDE  56				push		si
2CDF  B8 B6 07				mov		ax,0x07b6
2CE2  50				push		ax
2CE3  E8 66 07				call		L$814
2CE6  83 C4 04				add		sp,0x0004
2CE9  8B F0				mov		si,ax
2CEB  83 3E B6 07 00			cmp		word ptr ds:[0x7b6],0x0000
2CF0  7D 0C				jge		L$699
2CF2  FF 06 A2 07			inc		word ptr ds:[0x7a2]
2CF6  A1 B6 07				mov		ax,ds:[0x7b6]
2CF9  F7 D8				neg		ax
2CFB  A3 B6 07				mov		ds:[0x7b6],ax
2CFE				L$699:
2CFE  80 3C 2E				cmp		byte ptr [si],0x2e
2D01  75 23				jne		L$700
2D03  FF 06 A8 07			inc		word ptr ds:[0x7a8]
2D07  46				inc		si
2D08  56				push		si
2D09  B8 B0 07				mov		ax,0x07b0
2D0C  50				push		ax
2D0D  E8 3C 07				call		L$814
2D10  83 C4 04				add		sp,0x0004
2D13  8B F0				mov		si,ax
2D15  83 3E B0 07 00			cmp		word ptr ds:[0x7b0],0x0000
2D1A  7D 0A				jge		L$700
2D1C  C7 06 B0 07 01 00			mov		word ptr ds:[0x7b0],0x0001
2D22  FF 0E A8 07			dec		word ptr ds:[0x7a8]
2D26				L$700:
2D26  8A 04				mov		al,[si]
2D28  98				cbw
2D29  3D 46 00				cmp		ax,0x0046
2D2C  74 32				je		L$705
2D2E  3D 4E 00				cmp		ax,0x004e
2D31  74 35				je		L$706
2D33  3D 68 00				cmp		ax,0x0068
2D36  74 20				je		L$704
2D38  3D 6C 00				cmp		ax,0x006c
2D3B  75 06				jne		L$701
2D3D  C7 06 9E 07 02 00			mov		word ptr ds:[0x79e],0x0002
2D43				L$701:
2D43  83 3E 9E 07 00			cmp		word ptr ds:[0x79e],0x0000
2D48  75 05				jne		L$702
2D4A  80 3C 4C				cmp		byte ptr [si],0x4c
2D4D  75 01				jne		L$703
2D4F				L$702:
2D4F  46				inc		si
2D50				L$703:
2D50  80 3C 00				cmp		byte ptr [si],0x00
2D53  75 1B				jne		L$707
2D55  E9 88 01				jmp		L$730
2D58				L$704:
2D58  C7 06 9E 07 01 00			mov		word ptr ds:[0x79e],0x0001
2D5E  EB E3				jmp		L$701
2D60				L$705:
2D60  C7 06 9E 07 10 00			mov		word ptr ds:[0x79e],0x0010
2D66  EB DB				jmp		L$701
2D68				L$706:
2D68  C7 06 9E 07 08 00			mov		word ptr ds:[0x79e],0x0008
2D6E  EB D3				jmp		L$701
2D70				L$707:
2D70  8A 04				mov		al,[si]
2D72  98				cbw
2D73  89 86 9C FE			mov		-0x164[bp],ax
2D77  3D 45 00				cmp		ax,0x0045
2D7A  74 0A				je		L$708
2D7C  3D 47 00				cmp		ax,0x0047
2D7F  74 05				je		L$708
2D81  3D 58 00				cmp		ax,0x0058
2D84  75 09				jne		L$709
2D86				L$708:
2D86  FF 06 9C 07			inc		word ptr ds:[0x79c]
2D8A  83 86 9C FE 20			add		word ptr -0x164[bp],0x0020
2D8F				L$709:
2D8F  8B 86 9C FE			mov		ax,-0x164[bp]
2D93  2D 63 00				sub		ax,0x0063
2D96  3D 15 00				cmp		ax,0x0015
2D99  76 03				jbe		L$710
2D9B  E9 14 01				jmp		L$725
2D9E				L$710:
2D9E  03 C0				add		ax,ax
2DA0  93				xchg		ax,bx
2DA1  2E FF A7 F6 2E			jmp		word ptr cs:0x2ef6[bx]
2DA6  8B 1E A4 07			mov		bx,ds:[0x7a4]
2DAA  8B 1F				mov		bx,[bx]
2DAC  A1 AC 07				mov		ax,ds:[0x7ac]
2DAF  89 07				mov		[bx],ax
2DB1				L$711:
2DB1  83 06 A4 07 02			add		word ptr ds:[0x7a4],0x0002
2DB6  E9 69 01				jmp		L$732
2DB9  90				nop
2DBA  FF 06 AA 07			inc		word ptr ds:[0x7aa]
2DBE  C7 06 96 07 00 00			mov		word ptr ds:[0x796],0x0000
2DC4  B8 0A 00				mov		ax,0x000a
2DC7				L$712:
2DC7  50				push		ax
2DC8  E8 7F 01				call		L$736
2DCB				L$713:
2DCB  83 C4 02				add		sp,0x0002
2DCE  E9 51 01				jmp		L$732
2DD1  90				nop
2DD2  B8 08 00				mov		ax,0x0008
2DD5  EB F0				jmp		L$712
2DD7  90				nop
2DD8  FF 06 9A 07			inc		word ptr ds:[0x79a]
2DDC  FF 06 9C 07			inc		word ptr ds:[0x79c]
2DE0  83 3E A8 07 00			cmp		word ptr ds:[0x7a8],0x0000
2DE5  75 09				jne		L$714
2DE7  C7 06 B2 07 01 00			mov		word ptr ds:[0x7b2],0x0001
2DED  EB 07				jmp		L$715
2DEF  90				nop
2DF0				L$714:
2DF0  C7 06 B2 07 00 00			mov		word ptr ds:[0x7b2],0x0000
2DF6				L$715:
2DF6  FF 06 A8 07			inc		word ptr ds:[0x7a8]
2DFA  C7 06 B0 07 04 00			mov		word ptr ds:[0x7b0],0x0004
2E00  83 3E 9E 07 08			cmp		word ptr ds:[0x79e],0x0008
2E05  75 03				jne		L$716
2E07  E9 88 00				jmp		L$723
2E0A				L$716:
2E0A  2B C0				sub		ax,ax
2E0C  A3 9E 07				mov		ds:[0x79e],ax
2E0F  89 46 FC				mov		-0x4[bp],ax
2E12  39 06 B6 07			cmp		ds:[0x7b6],ax
2E16  74 27				je		L$719
2E18  A1 B6 07				mov		ax,ds:[0x7b6]
2E1B  89 46 FC				mov		-0x4[bp],ax
2E1E  83 3E A2 07 00			cmp		word ptr ds:[0x7a2],0x0000
2E23  74 09				je		L$717
2E25  C7 06 B6 07 00 00			mov		word ptr ds:[0x7b6],0x0000
2E2B  EB 12				jmp		L$719
2E2D  90				nop
2E2E				L$717:
2E2E  83 2E B6 07 05			sub		word ptr ds:[0x7b6],0x0005
2E33  A1 B6 07				mov		ax,ds:[0x7b6]
2E36  0B C0				or		ax,ax
2E38  7D 02				jge		L$718
2E3A  2B C0				sub		ax,ax
2E3C				L$718:
2E3C  A3 B6 07				mov		ds:[0x7b6],ax
2E3F				L$719:
2E3F  83 06 A4 07 02			add		word ptr ds:[0x7a4],0x0002
2E44  B8 10 00				mov		ax,0x0010
2E47  50				push		ax
2E48  E8 FF 00				call		L$736
2E4B  83 C4 02				add		sp,0x0002
2E4E  B8 3A 00				mov		ax,0x003a
2E51  50				push		ax
2E52  E8 CF 03				call		L$779
2E55  83 C4 02				add		sp,0x0002
2E58  83 7E FC 00			cmp		word ptr -0x4[bp],0x0000
2E5C  74 22				je		L$722
2E5E  83 3E A2 07 00			cmp		word ptr ds:[0x7a2],0x0000
2E63  74 15				je		L$721
2E65  8B 46 FC				mov		ax,-0x4[bp]
2E68  2D 05 00				sub		ax,0x0005
2E6B  A3 B6 07				mov		ds:[0x7b6],ax
2E6E  0B C0				or		ax,ax
2E70  7D 02				jge		L$720
2E72  2B C0				sub		ax,ax
2E74				L$720:
2E74  A3 B6 07				mov		ds:[0x7b6],ax
2E77  EB 07				jmp		L$722
2E79  90				nop
2E7A				L$721:
2E7A  C7 06 B6 07 00 00			mov		word ptr ds:[0x7b6],0x0000
2E80				L$722:
2E80  83 2E A4 07 04			sub		word ptr ds:[0x7a4],0x0004
2E85  B8 10 00				mov		ax,0x0010
2E88  50				push		ax
2E89  E8 BE 00				call		L$736
2E8C  83 C4 02				add		sp,0x0002
2E8F  E9 1F FF				jmp		L$711
2E92				L$723:
2E92  B8 10 00				mov		ax,0x0010
2E95  E9 2F FF				jmp		L$712
2E98  2B C0				sub		ax,ax
2E9A				L$724:
2E9A  50				push		ax
2E9B  E8 E2 01				call		L$755
2E9E  E9 2A FF				jmp		L$713
2EA1  90				nop
2EA2  B8 01 00				mov		ax,0x0001
2EA5  EB F3				jmp		L$724
2EA7  90				nop
2EA8  FF B6 9C FE			push		word ptr -0x164[bp]
2EAC  E8 B9 02				call		L$769
2EAF  E9 19 FF				jmp		L$713
2EB2				L$725:
2EB2  83 3E 9E 07 00			cmp		word ptr ds:[0x79e],0x0000
2EB7  74 03				je		L$726
2EB9  8B C6				mov		ax,si
2EBB  4E				dec		si
2EBC				L$726:
2EBC  8B FE				mov		di,si
2EBE				L$727:
2EBE  47				inc		di
2EBF  80 3D 00				cmp		byte ptr [di],0x00
2EC2  74 05				je		L$728
2EC4  80 3D 25				cmp		byte ptr [di],0x25
2EC7  75 F5				jne		L$727
2EC9				L$728:
2EC9  8B C7				mov		ax,di
2ECB  2B C6				sub		ax,si
2ECD  50				push		ax
2ECE  1E				push		ds
2ECF  56				push		si
2ED0  E8 ED 03				call		L$790
2ED3  83 C4 06				add		sp,0x0006
2ED6  8B F7				mov		si,di
2ED8				L$729:
2ED8  80 3C 00				cmp		byte ptr [si],0x00
2EDB  74 03				je		L$730
2EDD  E9 7C FD				jmp		L$692
2EE0				L$730:
2EE0  83 3E AC 07 00			cmp		word ptr ds:[0x7ac],0x0000
2EE5  75 59				jne		L$734
2EE7  8B 1E 98 07			mov		bx,ds:[0x798]
2EEB  F6 47 06 20			test		byte ptr 0x6[bx],0x20
2EEF  74 4F				je		L$734
2EF1				L$731:
2EF1  B8 FF FF				mov		ax,0xffff
2EF4  EB 4D				jmp		L$735
2EF6  A2 2E BE				mov		ds:[0xbe2e],al
2EF9  2D A8 2E				sub		ax,0x2ea8
2EFC  A8 2E				test		al,0x2e
2EFE  A8 2E				test		al,0x2e
2F00  B2 2E				mov		dl,0x2e
2F02  BE 2D B2				mov		si,0xb22d
2F05  2E B2 2E				mov		dl,0x2e
2F08  B2 2E				mov		dl,0x2e
2F0A  B2 2E				mov		dl,0x2e
2F0C  A6				cmpsb
2F0D  2D D2 2D				sub		ax,0x2dd2
2F10  D8 2D				fsubr		dword ptr [di]
2F12  B2 2E				mov		dl,0x2e
2F14  B2 2E				mov		dl,0x2e
2F16  98				cbw
2F17  2E B2 2E				mov		dl,0x2e
2F1A  BA 2D B2				mov		dx,0xb22d
2F1D  2E B2 2E				mov		dl,0x2e
2F20  92				xchg		ax,dx
2F21  2E                                              .
2F22				L$732:
2F22  83 3E AE 07 00			cmp		word ptr ds:[0x7ae],0x0000
2F27  74 13				je		L$733
2F29  83 3E AC 07 00			cmp		word ptr ds:[0x7ac],0x0000
2F2E  75 10				jne		L$734
2F30  8B 1E 98 07			mov		bx,ds:[0x798]
2F34  F6 47 06 20			test		byte ptr 0x6[bx],0x20
2F38  75 B7				jne		L$731
2F3A  EB 04				jmp		L$734
2F3C				L$733:
2F3C  46				inc		si
2F3D  EB 99				jmp		L$729
2F3F  90				nop
2F40				L$734:
2F40  A1 AC 07				mov		ax,ds:[0x7ac]
2F43				L$735:
2F43  5E				pop		si
2F44  5F				pop		di
2F45  8B E5				mov		sp,bp
2F47  5D				pop		bp
2F48  C3				ret
2F49  90				nop
2F4A				L$736:
2F4A  55				push		bp
2F4B  8B EC				mov		bp,sp
2F4D  83 EC 18				sub		sp,0x0018
2F50  57				push		di
2F51  56				push		si
2F52  83 7E 04 0A			cmp		word ptr 0x4[bp],0x000a
2F56  74 04				je		L$737
2F58  FF 06 AA 07			inc		word ptr ds:[0x7aa]
2F5C				L$737:
2F5C  83 3E 9E 07 02			cmp		word ptr ds:[0x79e],0x0002
2F61  74 07				je		L$738
2F63  83 3E 9E 07 10			cmp		word ptr ds:[0x79e],0x0010
2F68  75 16				jne		L$739
2F6A				L$738:
2F6A  8B 1E A4 07			mov		bx,ds:[0x7a4]
2F6E  8B 07				mov		ax,[bx]
2F70  8B 57 02				mov		dx,0x2[bx]
2F73  89 46 FC				mov		-0x4[bp],ax
2F76  89 56 FE				mov		-0x2[bp],dx
2F79  83 06 A4 07 04			add		word ptr ds:[0x7a4],0x0004
2F7E  EB 2A				jmp		L$742
2F80				L$739:
2F80  83 3E AA 07 00			cmp		word ptr ds:[0x7aa],0x0000
2F85  74 11				je		L$740
2F87  8B 1E A4 07			mov		bx,ds:[0x7a4]
2F8B  8B 07				mov		ax,[bx]
2F8D  89 46 FC				mov		-0x4[bp],ax
2F90  C7 46 FE 00 00			mov		word ptr -0x2[bp],0x0000
2F95  EB 0E				jmp		L$741
2F97  90				nop
2F98				L$740:
2F98  8B 1E A4 07			mov		bx,ds:[0x7a4]
2F9C  8B 07				mov		ax,[bx]
2F9E  99				cwd
2F9F  89 46 FC				mov		-0x4[bp],ax
2FA2  89 56 FE				mov		-0x2[bp],dx
2FA5				L$741:
2FA5  83 06 A4 07 02			add		word ptr ds:[0x7a4],0x0002
2FAA				L$742:
2FAA  83 3E 96 07 00			cmp		word ptr ds:[0x796],0x0000
2FAF  74 0D				je		L$743
2FB1  8B 46 FC				mov		ax,-0x4[bp]
2FB4  0B 46 FE				or		ax,-0x2[bp]
2FB7  74 05				je		L$743
2FB9  8B 46 04				mov		ax,0x4[bp]
2FBC  EB 02				jmp		L$744
2FBE				L$743:
2FBE  2B C0				sub		ax,ax
2FC0				L$744:
2FC0  A3 B8 07				mov		ds:[0x7b8],ax
2FC3  8B 36 B4 07			mov		si,ds:[0x7b4]
2FC7  83 3E AA 07 00			cmp		word ptr ds:[0x7aa],0x0000
2FCC  75 2A				jne		L$746
2FCE  83 7E FE 00			cmp		word ptr -0x2[bp],0x0000
2FD2  7D 24				jge		L$746
2FD4  83 7E 04 0A			cmp		word ptr 0x4[bp],0x000a
2FD8  75 17				jne		L$745
2FDA  C6 04 2D				mov		byte ptr [si],0x2d
2FDD  46				inc		si
2FDE  8B 46 FC				mov		ax,-0x4[bp]
2FE1  8B 56 FE				mov		dx,-0x2[bp]
2FE4  F7 D8				neg		ax
2FE6  83 D2 00				adc		dx,0x0000
2FE9  F7 DA				neg		dx
2FEB  89 46 FC				mov		-0x4[bp],ax
2FEE  89 56 FE				mov		-0x2[bp],dx
2FF1				L$745:
2FF1  C7 46 F8 01 00			mov		word ptr -0x8[bp],0x0001
2FF6  EB 05				jmp		L$747
2FF8				L$746:
2FF8  C7 46 F8 00 00			mov		word ptr -0x8[bp],0x0000
2FFD				L$747:
2FFD  8D 46 E8				lea		ax,-0x18[bp]
3000  8B F8				mov		di,ax
3002  FF 76 04				push		word ptr 0x4[bp]
3005  57				push		di
3006  FF 76 FE				push		word ptr -0x2[bp]
3009  FF 76 FC				push		word ptr -0x4[bp]
300C  E8 0B 0A				call		L$918
300F  83 C4 08				add		sp,0x0008
3012  83 3E A8 07 00			cmp		word ptr ds:[0x7a8],0x0000
3017  74 21				je		L$750
3019  57				push		di
301A  E8 A7 09				call		L$914
301D  83 C4 02				add		sp,0x0002
3020  8B 0E B0 07			mov		cx,ds:[0x7b0]
3024  2B C8				sub		cx,ax
3026  89 4E F4				mov		-0xc[bp],cx
3029  EB 05				jmp		L$749
302B  90				nop
302C				L$748:
302C  C6 04 30				mov		byte ptr [si],0x30
302F  46				inc		si
3030				L$749:
3030  8B C1				mov		ax,cx
3032  49				dec		cx
3033  0B C0				or		ax,ax
3035  7F F5				jg		L$748
3037  89 4E F4				mov		-0xc[bp],cx
303A				L$750:
303A  8B 0E 9C 07			mov		cx,ds:[0x79c]
303E				L$751:
303E  8A 05				mov		al,[di]
3040  88 04				mov		[si],al
3042  0B C9				or		cx,cx
3044  74 07				je		L$752
3046  3C 61				cmp		al,0x61
3048  7C 03				jl		L$752
304A  80 2C 20				sub		byte ptr [si],0x20
304D				L$752:
304D  46				inc		si
304E  47				inc		di
304F  80 7D FF 00			cmp		byte ptr -0x1[di],0x00
3053  75 E9				jne		L$751
3055  83 3E AA 07 00			cmp		word ptr ds:[0x7aa],0x0000
305A  75 14				jne		L$753
305C  A1 A0 07				mov		ax,ds:[0x7a0]
305F  0B 06 A6 07			or		ax,ds:[0x7a6]
3063  74 0B				je		L$753
3065  83 7E F8 00			cmp		word ptr -0x8[bp],0x0000
3069  75 05				jne		L$753
306B  B8 01 00				mov		ax,0x0001
306E  EB 02				jmp		L$754
3070				L$753:
3070  2B C0				sub		ax,ax
3072				L$754:
3072  50				push		ax
3073  E8 B2 02				call		L$797
3076  83 C4 02				add		sp,0x0002
3079  5E				pop		si
307A  5F				pop		di
307B  8B E5				mov		sp,bp
307D  5D				pop		bp
307E  C3				ret
307F  90				nop
3080				L$755:
3080  55				push		bp
3081  8B EC				mov		bp,sp
3083  83 EC 10				sub		sp,0x0010
3086  57				push		di
3087  56				push		si
3088  83 7E 04 00			cmp		word ptr 0x4[bp],0x0000
308C  74 14				je		L$756
308E  BE 01 00				mov		si,0x0001
3091  A1 A4 07				mov		ax,ds:[0x7a4]
3094  89 46 F8				mov		-0x8[bp],ax
3097  8C 5E FA				mov		word ptr -0x6[bp],ds
309A  83 06 A4 07 02			add		word ptr ds:[0x7a4],0x0002
309F  E9 91 00				jmp		L$766
30A2				L$756:
30A2  83 3E 9E 07 10			cmp		word ptr ds:[0x79e],0x0010
30A7  75 17				jne		L$757
30A9  8B 1E A4 07			mov		bx,ds:[0x7a4]
30AD  8B 07				mov		ax,[bx]
30AF  8B 57 02				mov		dx,0x2[bx]
30B2  89 46 F8				mov		-0x8[bp],ax
30B5  89 56 FA				mov		-0x6[bp],dx
30B8  83 06 A4 07 04			add		word ptr ds:[0x7a4],0x0004
30BD  EB 15				jmp		L$758
30BF  90				nop
30C0				L$757:
30C0  8B 1E A4 07			mov		bx,ds:[0x7a4]
30C4  8B 07				mov		ax,[bx]
30C6  89 46 FC				mov		-0x4[bp],ax
30C9  89 46 F8				mov		-0x8[bp],ax
30CC  8C 5E FA				mov		word ptr -0x6[bp],ds
30CF  83 06 A4 07 02			add		word ptr ds:[0x7a4],0x0002
30D4				L$758:
30D4  83 3E 9E 07 10			cmp		word ptr ds:[0x79e],0x0010
30D9  75 0D				jne		L$759
30DB  8B 46 F8				mov		ax,-0x8[bp]
30DE  0B 46 FA				or		ax,-0x6[bp]
30E1  75 14				jne		L$761
30E3  B8 72 06				mov		ax,0x0672
30E6  EB 09				jmp		L$760
30E8				L$759:
30E8  83 7E FC 00			cmp		word ptr -0x4[bp],0x0000
30EC  75 09				jne		L$761
30EE  B8 79 06				mov		ax,0x0679
30F1				L$760:
30F1  89 46 F8				mov		-0x8[bp],ax
30F4  8C 5E FA				mov		word ptr -0x6[bp],ds
30F7				L$761:
30F7  8B 46 F8				mov		ax,-0x8[bp]
30FA  8B 56 FA				mov		dx,-0x6[bp]
30FD  89 46 F2				mov		-0xe[bp],ax
3100  89 56 F4				mov		-0xc[bp],dx
3103  2B F6				sub		si,si
3105  39 36 A8 07			cmp		ds:[0x7a8],si
3109  74 1C				je		L$765
310B  8B 0E B0 07			mov		cx,ds:[0x7b0]
310F  EB 0E				jmp		L$763
3111  90				nop
3112				L$762:
3112  C4 5E F2				les		bx,-0xe[bp]
3115  FF 46 F2				inc		word ptr -0xe[bp]
3118  26 80 3F 00			cmp		byte ptr es:[bx],0x00
311C  74 15				je		L$766
311E  46				inc		si
311F				L$763:
311F  3B CE				cmp		cx,si
3121  7E 10				jle		L$766
3123  EB ED				jmp		L$762
3125  90				nop
3126				L$764:
3126  46				inc		si
3127				L$765:
3127  C4 5E F2				les		bx,-0xe[bp]
312A  FF 46 F2				inc		word ptr -0xe[bp]
312D  26 80 3F 00			cmp		byte ptr es:[bx],0x00
3131  75 F3				jne		L$764
3133				L$766:
3133  8B 3E B6 07			mov		di,ds:[0x7b6]
3137  2B FE				sub		di,si
3139  83 3E A2 07 00			cmp		word ptr ds:[0x7a2],0x0000
313E  75 07				jne		L$767
3140  57				push		di
3141  E8 1E 01				call		L$784
3144  83 C4 02				add		sp,0x0002
3147				L$767:
3147  56				push		si
3148  FF 76 FA				push		word ptr -0x6[bp]
314B  FF 76 F8				push		word ptr -0x8[bp]
314E  E8 6F 01				call		L$790
3151  83 C4 06				add		sp,0x0006
3154  83 3E A2 07 00			cmp		word ptr ds:[0x7a2],0x0000
3159  74 07				je		L$768
315B  57				push		di
315C  E8 03 01				call		L$784
315F  83 C4 02				add		sp,0x0002
3162				L$768:
3162  5E				pop		si
3163  5F				pop		di
3164  8B E5				mov		sp,bp
3166  5D				pop		bp
3167  C3				ret
3168				L$769:
3168  55				push		bp
3169  8B EC				mov		bp,sp
316B  83 EC 04				sub		sp,0x0004
316E  A1 A4 07				mov		ax,ds:[0x7a4]
3171  89 46 FE				mov		-0x2[bp],ax
3174  83 7E 04 67			cmp		word ptr 0x4[bp],0x0067
3178  74 06				je		L$770
317A  83 7E 04 47			cmp		word ptr 0x4[bp],0x0047
317E  75 04				jne		L$771
3180				L$770:
3180  B0 01				mov		al,0x01
3182  EB 02				jmp		L$772
3184				L$771:
3184  2A C0				sub		al,al
3186				L$772:
3186  88 46 FC				mov		-0x4[bp],al
3189  83 3E A8 07 00			cmp		word ptr ds:[0x7a8],0x0000
318E  75 06				jne		L$773
3190  C7 06 B0 07 06 00			mov		word ptr ds:[0x7b0],0x0006
3196				L$773:
3196  80 7E FC 00			cmp		byte ptr -0x4[bp],0x00
319A  74 0D				je		L$774
319C  83 3E B0 07 00			cmp		word ptr ds:[0x7b0],0x0000
31A1  75 06				jne		L$774
31A3  C7 06 B0 07 01 00			mov		word ptr ds:[0x7b0],0x0001
31A9				L$774:
31A9  FF 36 9C 07			push		word ptr ds:[0x79c]
31AD  FF 36 B0 07			push		word ptr ds:[0x7b0]
31B1  FF 76 04				push		word ptr 0x4[bp]
31B4  FF 36 B4 07			push		word ptr ds:[0x7b4]
31B8  FF 76 FE				push		word ptr -0x2[bp]
31BB  FF 16 9C 06			call		word ptr ds:[0x69c]
31BF  83 C4 0A				add		sp,0x000a
31C2  80 7E FC 00			cmp		byte ptr -0x4[bp],0x00
31C6  74 12				je		L$775
31C8  83 3E 96 07 00			cmp		word ptr ds:[0x796],0x0000
31CD  75 0B				jne		L$775
31CF  FF 36 B4 07			push		word ptr ds:[0x7b4]
31D3  FF 16 9E 06			call		word ptr ds:[0x69e]
31D7  83 C4 02				add		sp,0x0002
31DA				L$775:
31DA  83 3E 96 07 00			cmp		word ptr ds:[0x796],0x0000
31DF  74 12				je		L$776
31E1  83 3E B0 07 00			cmp		word ptr ds:[0x7b0],0x0000
31E6  75 0B				jne		L$776
31E8  FF 36 B4 07			push		word ptr ds:[0x7b4]
31EC  FF 16 A2 06			call		word ptr ds:[0x6a2]
31F0  83 C4 02				add		sp,0x0002
31F3				L$776:
31F3  83 06 A4 07 08			add		word ptr ds:[0x7a4],0x0008
31F8  C7 06 B8 07 00 00			mov		word ptr ds:[0x7b8],0x0000
31FE  A1 A0 07				mov		ax,ds:[0x7a0]
3201  0B 06 A6 07			or		ax,ds:[0x7a6]
3205  74 13				je		L$777
3207  FF 76 FE				push		word ptr -0x2[bp]
320A  FF 16 A4 06			call		word ptr ds:[0x6a4]
320E  83 C4 02				add		sp,0x0002
3211  0B C0				or		ax,ax
3213  74 05				je		L$777
3215  B8 01 00				mov		ax,0x0001
3218  EB 02				jmp		L$778
321A				L$777:
321A  2B C0				sub		ax,ax
321C				L$778:
321C  50				push		ax
321D  E8 08 01				call		L$797
3220  8B E5				mov		sp,bp
3222  5D				pop		bp
3223  C3				ret
3224				L$779:
3224  55				push		bp
3225  8B EC				mov		bp,sp
3227  56				push		si
3228  83 3E AE 07 00			cmp		word ptr ds:[0x7ae],0x0000
322D  75 2F				jne		L$783
322F  8B 1E 98 07			mov		bx,ds:[0x798]
3233  FF 4F 02				dec		word ptr 0x2[bx]
3236  78 0E				js		L$780
3238  8A 46 04				mov		al,0x4[bp]
323B  8B 37				mov		si,[bx]
323D  FF 07				inc		word ptr [bx]
323F  88 04				mov		[si],al
3241  2A E4				sub		ah,ah
3243  EB 0B				jmp		L$781
3245  90				nop
3246				L$780:
3246  53				push		bx
3247  FF 76 04				push		word ptr 0x4[bp]
324A  E8 95 F6				call		L$659
324D  83 C4 04				add		sp,0x0004
3250				L$781:
3250  40				inc		ax
3251  75 07				jne		L$782
3253  FF 06 AE 07			inc		word ptr ds:[0x7ae]
3257  EB 05				jmp		L$783
3259  90				nop
325A				L$782:
325A  FF 06 AC 07			inc		word ptr ds:[0x7ac]
325E				L$783:
325E  5E				pop		si
325F  5D				pop		bp
3260  C3				ret
3261  90				nop
3262				L$784:
3262  55				push		bp
3263  8B EC				mov		bp,sp
3265  83 EC 02				sub		sp,0x0002
3268  57				push		di
3269  56				push		si
326A  83 3E AE 07 00			cmp		word ptr ds:[0x7ae],0x0000
326F  75 49				jne		L$789
3271  8B 76 04				mov		si,0x4[bp]
3274  0B F6				or		si,si
3276  7E 42				jle		L$789
3278  EB 15				jmp		L$787
327A				L$785:
327A  FF 36 98 07			push		word ptr ds:[0x798]
327E  FF 36 BA 07			push		word ptr ds:[0x7ba]
3282  E8 5D F6				call		L$659
3285  83 C4 04				add		sp,0x0004
3288				L$786:
3288  40				inc		ax
3289  75 04				jne		L$787
328B  FF 06 AE 07			inc		word ptr ds:[0x7ae]
328F				L$787:
328F  8B C6				mov		ax,si
3291  4E				dec		si
3292  0B C0				or		ax,ax
3294  7E 16				jle		L$788
3296  8B 1E 98 07			mov		bx,ds:[0x798]
329A  FF 4F 02				dec		word ptr 0x2[bx]
329D  78 DB				js		L$785
329F  A0 BA 07				mov		al,ds:[0x7ba]
32A2  8B 3F				mov		di,[bx]
32A4  FF 07				inc		word ptr [bx]
32A6  88 05				mov		[di],al
32A8  2A E4				sub		ah,ah
32AA  EB DC				jmp		L$786
32AC				L$788:
32AC  83 3E AE 07 00			cmp		word ptr ds:[0x7ae],0x0000
32B1  75 07				jne		L$789
32B3  8B 46 04				mov		ax,0x4[bp]
32B6  01 06 AC 07			add		ds:[0x7ac],ax
32BA				L$789:
32BA  5E				pop		si
32BB  5F				pop		di
32BC  8B E5				mov		sp,bp
32BE  5D				pop		bp
32BF  C3				ret
32C0				L$790:
32C0  55				push		bp
32C1  8B EC				mov		bp,sp
32C3  83 EC 02				sub		sp,0x0002
32C6  57				push		di
32C7  56				push		si
32C8  8B 76 08				mov		si,0x8[bp]
32CB  83 3E AE 07 00			cmp		word ptr ds:[0x7ae],0x0000
32D0  75 50				jne		L$796
32D2  EB 1C				jmp		L$794
32D4				L$791:
32D4  FF 36 98 07			push		word ptr ds:[0x798]
32D8  C4 5E 04				les		bx,0x4[bp]
32DB  26 8A 07				mov		al,es:[bx]
32DE  98				cbw
32DF  50				push		ax
32E0  E8 FF F5				call		L$659
32E3  83 C4 04				add		sp,0x0004
32E6				L$792:
32E6  40				inc		ax
32E7  75 04				jne		L$793
32E9  FF 06 AE 07			inc		word ptr ds:[0x7ae]
32ED				L$793:
32ED  FF 46 04				inc		word ptr 0x4[bp]
32F0				L$794:
32F0  8B C6				mov		ax,si
32F2  4E				dec		si
32F3  0B C0				or		ax,ax
32F5  74 1D				je		L$795
32F7  8B 1E 98 07			mov		bx,ds:[0x798]
32FB  FF 4F 02				dec		word ptr 0x2[bx]
32FE  78 D4				js		L$791
3300  C4 5E 04				les		bx,0x4[bp]
3303  26 8A 07				mov		al,es:[bx]
3306  8B 1E 98 07			mov		bx,ds:[0x798]
330A  8B 3F				mov		di,[bx]
330C  FF 07				inc		word ptr [bx]
330E  88 05				mov		[di],al
3310  2A E4				sub		ah,ah
3312  EB D2				jmp		L$792
3314				L$795:
3314  83 3E AE 07 00			cmp		word ptr ds:[0x7ae],0x0000
3319  75 07				jne		L$796
331B  8B 46 08				mov		ax,0x8[bp]
331E  01 06 AC 07			add		ds:[0x7ac],ax
3322				L$796:
3322  5E				pop		si
3323  5F				pop		di
3324  8B E5				mov		sp,bp
3326  5D				pop		bp
3327  C3				ret
3328				L$797:
3328  55				push		bp
3329  8B EC				mov		bp,sp
332B  83 EC 0A				sub		sp,0x000a
332E  57				push		di
332F  56				push		si
3330  8B 36 B4 07			mov		si,ds:[0x7b4]
3334  2B C0				sub		ax,ax
3336  89 46 FC				mov		-0x4[bp],ax
3339  89 46 FA				mov		-0x6[bp],ax
333C  83 3E BA 07 30			cmp		word ptr ds:[0x7ba],0x0030
3341  75 18				jne		L$799
3343  39 06 A8 07			cmp		ds:[0x7a8],ax
3347  74 12				je		L$799
3349  39 06 9A 07			cmp		ds:[0x79a],ax
334D  74 06				je		L$798
334F  39 06 B2 07			cmp		ds:[0x7b2],ax
3353  75 06				jne		L$799
3355				L$798:
3355  C7 06 BA 07 20 00			mov		word ptr ds:[0x7ba],0x0020
335B				L$799:
335B  8B 3E B6 07			mov		di,ds:[0x7b6]
335F  56				push		si
3360  E8 61 06				call		L$914
3363  83 C4 02				add		sp,0x0002
3366  89 46 F8				mov		-0x8[bp],ax
3369  2B F8				sub		di,ax
336B  2B 7E 04				sub		di,0x4[bp]
336E  83 3E A2 07 00			cmp		word ptr ds:[0x7a2],0x0000
3373  75 18				jne		L$800
3375  80 3C 2D				cmp		byte ptr [si],0x2d
3378  75 13				jne		L$800
337A  83 3E BA 07 30			cmp		word ptr ds:[0x7ba],0x0030
337F  75 0C				jne		L$800
3381  AC				lodsb
3382  98				cbw
3383  50				push		ax
3384  E8 9D FE				call		L$779
3387  83 C4 02				add		sp,0x0002
338A  FF 4E F8				dec		word ptr -0x8[bp]
338D				L$800:
338D  83 3E BA 07 30			cmp		word ptr ds:[0x7ba],0x0030
3392  74 0B				je		L$801
3394  0B FF				or		di,di
3396  7E 07				jle		L$801
3398  83 3E A2 07 00			cmp		word ptr ds:[0x7a2],0x0000
339D  74 19				je		L$803
339F				L$801:
339F  83 7E 04 00			cmp		word ptr 0x4[bp],0x0000
33A3  74 06				je		L$802
33A5  FF 46 FA				inc		word ptr -0x6[bp]
33A8  E8 5F 00				call		L$807
33AB				L$802:
33AB  83 3E B8 07 00			cmp		word ptr ds:[0x7b8],0x0000
33B0  74 06				je		L$803
33B2  FF 46 FC				inc		word ptr -0x4[bp]
33B5  E8 6A 00				call		L$810
33B8				L$803:
33B8  83 3E A2 07 00			cmp		word ptr ds:[0x7a2],0x0000
33BD  75 26				jne		L$805
33BF  57				push		di
33C0  E8 9F FE				call		L$784
33C3  83 C4 02				add		sp,0x0002
33C6  83 7E 04 00			cmp		word ptr 0x4[bp],0x0000
33CA  74 09				je		L$804
33CC  83 7E FA 00			cmp		word ptr -0x6[bp],0x0000
33D0  75 03				jne		L$804
33D2  E8 35 00				call		L$807
33D5				L$804:
33D5  83 3E B8 07 00			cmp		word ptr ds:[0x7b8],0x0000
33DA  74 09				je		L$805
33DC  83 7E FC 00			cmp		word ptr -0x4[bp],0x0000
33E0  75 03				jne		L$805
33E2  E8 3D 00				call		L$810
33E5				L$805:
33E5  FF 76 F8				push		word ptr -0x8[bp]
33E8  1E				push		ds
33E9  56				push		si
33EA  E8 D3 FE				call		L$790
33ED  83 C4 06				add		sp,0x0006
33F0  83 3E A2 07 00			cmp		word ptr ds:[0x7a2],0x0000
33F5  74 0D				je		L$806
33F7  C7 06 BA 07 20 00			mov		word ptr ds:[0x7ba],0x0020
33FD  57				push		di
33FE  E8 61 FE				call		L$784
3401  83 C4 02				add		sp,0x0002
3404				L$806:
3404  5E				pop		si
3405  5F				pop		di
3406  8B E5				mov		sp,bp
3408  5D				pop		bp
3409  C3				ret
340A				L$807:
340A  83 3E A0 07 00			cmp		word ptr ds:[0x7a0],0x0000
340F  74 05				je		L$808
3411  B8 2B 00				mov		ax,0x002b
3414  EB 03				jmp		L$809
3416				L$808:
3416  B8 20 00				mov		ax,0x0020
3419				L$809:
3419  50				push		ax
341A  E8 07 FE				call		L$779
341D  83 C4 02				add		sp,0x0002
3420  C3				ret
3421  90				nop
3422				L$810:
3422  B8 30 00				mov		ax,0x0030
3425  50				push		ax
3426  E8 FB FD				call		L$779
3429  83 C4 02				add		sp,0x0002
342C  83 3E B8 07 10			cmp		word ptr ds:[0x7b8],0x0010
3431  75 17				jne		L$813
3433  83 3E 9C 07 00			cmp		word ptr ds:[0x79c],0x0000
3438  74 06				je		L$811
343A  B8 58 00				mov		ax,0x0058
343D  EB 04				jmp		L$812
343F  90				nop
3440				L$811:
3440  B8 78 00				mov		ax,0x0078
3443				L$812:
3443  50				push		ax
3444  E8 DD FD				call		L$779
3447  83 C4 02				add		sp,0x0002
344A				L$813:
344A  C3				ret
344B  90				nop
344C				L$814:
344C  55				push		bp
344D  8B EC				mov		bp,sp
344F  83 EC 04				sub		sp,0x0004
3452  57				push		di
3453  56				push		si
3454  8B 76 06				mov		si,0x6[bp]
3457  C7 46 FE 01 00			mov		word ptr -0x2[bp],0x0001
345C  80 3C 2A				cmp		byte ptr [si],0x2a
345F  75 0F				jne		L$815
3461  8B 1E A4 07			mov		bx,ds:[0x7a4]
3465  8B 3F				mov		di,[bx]
3467  83 06 A4 07 02			add		word ptr ds:[0x7a4],0x0002
346C  46				inc		si
346D  EB 48				jmp		L$818
346F  90				nop
3470				L$815:
3470  80 3C 2D				cmp		byte ptr [si],0x2d
3473  75 06				jne		L$816
3475  C7 46 FE FF FF			mov		word ptr -0x2[bp],0xffff
347A  46				inc		si
347B				L$816:
347B  2B FF				sub		di,di
347D  80 3C 30				cmp		byte ptr [si],0x30
3480  7C 35				jl		L$818
3482  80 3C 39				cmp		byte ptr [si],0x39
3485  7F 30				jg		L$818
3487  39 3E A8 07			cmp		ds:[0x7a8],di
348B  75 0B				jne		L$817
348D  80 3C 30				cmp		byte ptr [si],0x30
3490  75 06				jne		L$817
3492  C7 06 BA 07 30 00			mov		word ptr ds:[0x7ba],0x0030
3498				L$817:
3498  8A 04				mov		al,[si]
349A  98				cbw
349B  8B CF				mov		cx,di
349D  D1 E1				shl		cx,0x01
349F  D1 E1				shl		cx,0x01
34A1  03 CF				add		cx,di
34A3  D1 E1				shl		cx,0x01
34A5  03 C8				add		cx,ax
34A7  83 E9 30				sub		cx,0x0030
34AA  8B F9				mov		di,cx
34AC  46				inc		si
34AD  80 3C 30				cmp		byte ptr [si],0x30
34B0  7C 05				jl		L$818
34B2  80 3C 39				cmp		byte ptr [si],0x39
34B5  7E E1				jle		L$817
34B7				L$818:
34B7  8B 46 FE				mov		ax,-0x2[bp]
34BA  F7 EF				imul		di
34BC  8B F8				mov		di,ax
34BE  8B 5E 04				mov		bx,0x4[bp]
34C1  89 3F				mov		[bx],di
34C3  8B C6				mov		ax,si
34C5  5E				pop		si
34C6  5F				pop		di
34C7  8B E5				mov		sp,bp
34C9  5D				pop		bp
34CA  C3				ret
34CB  90				nop
34CC				L$819:
34CC  55				push		bp
34CD  8B EC				mov		bp,sp
34CF  83 EC 02				sub		sp,0x0002
34D2  56				push		si
34D3  BE 80 06				mov		si,0x0680
34D6  8A 4E 04				mov		cl,0x4[bp]
34D9  EB 02				jmp		L$821
34DB  90				nop
34DC				L$820:
34DC  46				inc		si
34DD				L$821:
34DD  80 3C 00				cmp		byte ptr [si],0x00
34E0  74 0A				je		L$822
34E2  3A 0C				cmp		cl,[si]
34E4  75 F6				jne		L$820
34E6  B8 01 00				mov		ax,0x0001
34E9  EB 03				jmp		L$823
34EB  90				nop
34EC				L$822:
34EC  2B C0				sub		ax,ax
34EE				L$823:
34EE  5E				pop		si
34EF  8B E5				mov		sp,bp
34F1  5D				pop		bp
34F2  C3				ret
34F3  90				nop
34F4				L$824:
34F4  55				push		bp
34F5  8B EC				mov		bp,sp
34F7  83 EC 04				sub		sp,0x0004
34FA  8B 5E 04				mov		bx,0x4[bp]
34FD  3B 1E 12 05			cmp		bx,ds:[0x512]
3501  72 05				jb		L$825
3503  B8 00 09				mov		ax,0x0900
3506  EB 2A				jmp		L$827
3508				L$825:
3508  F7 46 08 00 80			test		word ptr 0x8[bp],0x8000
350D  74 48				je		L$829
350F  83 7E 0A 00			cmp		word ptr 0xa[bp],0x0000
3513  74 1A				je		L$826
3515  33 C9				xor		cx,cx
3517  8B D1				mov		dx,cx
3519  B8 01 42				mov		ax,0x4201
351C  CD 21				int		0x21
351E  72 4B				jb		L$830
3520  F7 46 0A 02 00			test		word ptr 0xa[bp],0x0002
3525  75 0E				jne		L$828
3527  03 46 06				add		ax,0x6[bp]
352A  13 56 08				adc		dx,0x8[bp]
352D  79 28				jns		L$829
352F				L$826:
352F  B8 00 16				mov		ax,0x1600
3532				L$827:
3532  F9				stc
3533  EB 36				jmp		L$830
3535				L$828:
3535  89 56 FE				mov		-0x2[bp],dx
3538  89 46 FC				mov		-0x4[bp],ax
353B  8B D1				mov		dx,cx
353D  B8 02 42				mov		ax,0x4202
3540  CD 21				int		0x21
3542  03 46 06				add		ax,0x6[bp]
3545  13 56 08				adc		dx,0x8[bp]
3548  79 0D				jns		L$829
354A  8B 4E FE				mov		cx,-0x2[bp]
354D  8B 56 FC				mov		dx,-0x4[bp]
3550  B8 00 42				mov		ax,0x4200
3553  CD 21				int		0x21
3555  EB D8				jmp		L$826
3557				L$829:
3557  8B 56 06				mov		dx,0x6[bp]
355A  8B 4E 08				mov		cx,0x8[bp]
355D  8A 46 0A				mov		al,0xa[bp]
3560  B4 42				mov		ah,0x42
3562  CD 21				int		0x21
3564  72 05				jb		L$830
3566  80 A7 14 05 FD			and		byte ptr 0x514[bx],0xfd
356B				L$830:
356B  E9 C5 F2				jmp		L$645
356E				L$831:
356E  55				push		bp
356F  8B EC				mov		bp,sp
3571  83 EC 08				sub		sp,0x0008
3574  8B 5E 04				mov		bx,0x4[bp]
3577  3B 1E 12 05			cmp		bx,ds:[0x512]
357B  72 07				jb		L$833
357D  B8 00 09				mov		ax,0x0900
3580  F9				stc
3581				L$832:
3581  E9 AF F2				jmp		L$645
3584				L$833:
3584  F6 87 14 05 20			test		byte ptr 0x514[bx],0x20
3589  74 0B				je		L$834
358B  B8 02 42				mov		ax,0x4202
358E  33 C9				xor		cx,cx
3590  8B D1				mov		dx,cx
3592  CD 21				int		0x21
3594  72 EB				jb		L$832
3596				L$834:
3596  F6 87 14 05 80			test		byte ptr 0x514[bx],0x80
359B  74 6E				je		L$843
359D  8B 56 06				mov		dx,0x6[bp]
35A0  1E				push		ds
35A1  07				pop		es
35A2  33 C0				xor		ax,ax
35A4  89 46 FE				mov		-0x2[bp],ax
35A7  89 46 FC				mov		-0x4[bp],ax
35AA  FC				cld
35AB  57				push		di
35AC  56				push		si
35AD  8B FA				mov		di,dx
35AF  8B F2				mov		si,dx
35B1  89 66 F8				mov		-0x8[bp],sp
35B4  8B 4E 08				mov		cx,0x8[bp]
35B7  E3 54				jcxz		L$844
35B9  B0 0A				mov		al,0x0a
35BB  F2 AE				repne scasb
35BD  75 4A				jne		L$842
35BF  E8 D4 00				call		L$858
35C2  3D A8 00				cmp		ax,0x00a8
35C5  76 48				jbe		L$845
35C7  83 EC 02				sub		sp,0x0002
35CA  8B DC				mov		bx,sp
35CC  BA 00 02				mov		dx,0x0200
35CF  3D 28 02				cmp		ax,0x0228
35D2  73 03				jae		L$835
35D4  BA 80 00				mov		dx,0x0080
35D7				L$835:
35D7  2B E2				sub		sp,dx
35D9  8B D4				mov		dx,sp
35DB  8B FA				mov		di,dx
35DD  16				push		ss
35DE  07				pop		es
35DF  8B 4E 08				mov		cx,0x8[bp]
35E2				L$836:
35E2  AC				lodsb
35E3  3C 0A				cmp		al,0x0a
35E5  74 0C				je		L$839
35E7				L$837:
35E7  3B FB				cmp		di,bx
35E9  74 19				je		L$841
35EB				L$838:
35EB  AA				stosb
35EC  E2 F4				loop		L$836
35EE  E8 23 00				call		L$846
35F1  EB 61				jmp		L$851
35F3				L$839:
35F3  B0 0D				mov		al,0x0d
35F5  3B FB				cmp		di,bx
35F7  75 03				jne		L$840
35F9  E8 18 00				call		L$846
35FC				L$840:
35FC  AA				stosb
35FD  B0 0A				mov		al,0x0a
35FF  FF 46 FC				inc		word ptr -0x4[bp]
3602  EB E3				jmp		L$837
3604				L$841:
3604  E8 0D 00				call		L$846
3607  EB E2				jmp		L$838
3609				L$842:
3609  5E				pop		si
360A  5F				pop		di
360B				L$843:
360B  EB 55				jmp		L$854
360D				L$844:
360D  EB 45				jmp		L$851
360F				L$845:
360F  33 C0				xor		ax,ax
3611  E9 9D ED				jmp		L$566
3614				L$846:
3614  50				push		ax
3615  53				push		bx
3616  51				push		cx
3617  8B CF				mov		cx,di
3619  2B CA				sub		cx,dx
361B  E3 10				jcxz		L$847
361D  8B 5E 04				mov		bx,0x4[bp]
3620  B4 40				mov		ah,0x40
3622  CD 21				int		0x21
3624  72 0D				jb		L$848
3626  01 46 FE				add		-0x2[bp],ax
3629  0B C0				or		ax,ax
362B  74 06				je		L$848
362D				L$847:
362D  59				pop		cx
362E  5B				pop		bx
362F  58				pop		ax
3630  8B FA				mov		di,dx
3632  C3				ret
3633				L$848:
3633  83 C4 08				add		sp,0x0008
3636  73 04				jae		L$849
3638  B4 09				mov		ah,0x09
363A  EB 1E				jmp		L$852
363C				L$849:
363C  F6 87 14 05 40			test		byte ptr 0x514[bx],0x40
3641  74 0B				je		L$850
3643  8B 5E 06				mov		bx,0x6[bp]
3646  80 3F 1A				cmp		byte ptr [bx],0x1a
3649  75 03				jne		L$850
364B  F8				clc
364C  EB 0C				jmp		L$852
364E				L$850:
364E  F9				stc
364F  B8 00 1C				mov		ax,0x1c00
3652  EB 06				jmp		L$852
3654				L$851:
3654  8B 46 FE				mov		ax,-0x2[bp]
3657  2B 46 FC				sub		ax,-0x4[bp]
365A				L$852:
365A  8B 66 F8				mov		sp,-0x8[bp]
365D  5E				pop		si
365E  5F				pop		di
365F				L$853:
365F  E9 D1 F1				jmp		L$645
3662				L$854:
3662  8B 4E 08				mov		cx,0x8[bp]
3665  0B C9				or		cx,cx
3667  75 05				jne		L$855
3669  8B C1				mov		ax,cx
366B  E9 C5 F1				jmp		L$645
366E				L$855:
366E  8B 56 06				mov		dx,0x6[bp]
3671  B4 40				mov		ah,0x40
3673  CD 21				int		0x21
3675  73 04				jae		L$856
3677  B4 09				mov		ah,0x09
3679  EB E4				jmp		L$853
367B				L$856:
367B  0B C0				or		ax,ax
367D  75 E0				jne		L$853
367F  F6 87 14 05 40			test		byte ptr 0x514[bx],0x40
3684  74 0A				je		L$857
3686  8B DA				mov		bx,dx
3688  80 3F 1A				cmp		byte ptr [bx],0x1a
368B  75 03				jne		L$857
368D  F8				clc
368E  EB CF				jmp		L$853
3690				L$857:
3690  F9				stc
3691  B8 00 1C				mov		ax,0x1c00
3694  EB C9				jmp		L$853
3696				L$858:
3696  59				pop		cx
3697  A1 3E 05				mov		ax,ds:[0x53e]
369A  3B C4				cmp		ax,sp
369C  73 06				jae		L$860
369E  2B C4				sub		ax,sp
36A0  F7 D8				neg		ax
36A2				L$859:
36A2  FF E1				jmp		cx
36A4				L$860:
36A4  33 C0				xor		ax,ax
36A6  EB FA				jmp		L$859
36A8  55				push		bp
36A9  8B EC				mov		bp,sp
36AB  8B 5E 04				mov		bx,0x4[bp]
36AE  0B DB				or		bx,bx
36B0  74 04				je		L$861
36B2  80 4F FE 01			or		byte ptr -0x2[bx],0x01
36B6				L$861:
36B6  8B E5				mov		sp,bp
36B8  5D				pop		bp
36B9  C3				ret
36BA				L$862:
36BA  55				push		bp
36BB  8B EC				mov		bp,sp
36BD  56				push		si
36BE  57				push		di
36BF  BB 86 06				mov		bx,0x0686
36C2  83 3F 00				cmp		word ptr [bx],0x0000
36C5  75 29				jne		L$864
36C7  1E				push		ds
36C8  07				pop		es
36C9  B8 05 00				mov		ax,0x0005
36CC  E8 73 01				call		L$893
36CF  75 05				jne		L$863
36D1  33 C0				xor		ax,ax
36D3  99				cwd
36D4  EB 24				jmp		L$865
36D6				L$863:
36D6  40				inc		ax
36D7  24 FE				and		al,0xfe
36D9  A3 86 06				mov		ds:[0x686],ax
36DC  A3 88 06				mov		ds:[0x688],ax
36DF  96				xchg		ax,si
36E0  C7 04 01 00			mov		word ptr [si],0x0001
36E4  83 C6 04				add		si,0x0004
36E7  C7 44 FE FE FF			mov		word ptr -0x2[si],0xfffe
36EC  89 36 8C 06			mov		ds:[0x68c],si
36F0				L$864:
36F0  8B 4E 04				mov		cx,0x4[bp]
36F3  8C D8				mov		ax,ds
36F5  8E C0				mov		es,ax
36F7  E8 09 00				call		L$867
36FA				L$865:
36FA  5F				pop		di
36FB  5E				pop		si
36FC  8B E5				mov		sp,bp
36FE  5D				pop		bp
36FF  C3				ret
3700				L$866:
3700  E9 CE 00				jmp		L$882
3703				L$867:
3703  41				inc		cx
3704  74 FA				je		L$866
3706  80 E1 FE				and		cl,0xfe
3709  83 F9 EE				cmp		cx,0xffee
370C  73 F2				jae		L$866
370E  8B 77 02				mov		si,0x2[bx]
3711  FC				cld
3712  AD				lodsw
3713  8B FE				mov		di,si
3715  A8 01				test		al,0x01
3717  74 42				je		L$873
3719				L$868:
3719  48				dec		ax
371A  3B C1				cmp		ax,cx
371C  73 15				jae		L$869
371E  8B D0				mov		dx,ax
3720  03 F0				add		si,ax
3722  AD				lodsw
3723  A8 01				test		al,0x01
3725  74 34				je		L$873
3727  03 C2				add		ax,dx
3729  05 02 00				add		ax,0x0002
372C  8B F7				mov		si,di
372E  89 44 FE				mov		-0x2[si],ax
3731  EB E6				jmp		L$868
3733				L$869:
3733  8B FE				mov		di,si
3735  74 0C				je		L$870
3737  03 F9				add		di,cx
3739  89 4C FE				mov		-0x2[si],cx
373C  2B C1				sub		ax,cx
373E  48				dec		ax
373F  89 05				mov		[di],ax
3741  EB 05				jmp		L$871
3743				L$870:
3743  03 F9				add		di,cx
3745  FE 4C FE				dec		byte ptr -0x2[si]
3748				L$871:
3748  8B C6				mov		ax,si
374A  8C DA				mov		dx,ds
374C  8C D1				mov		cx,ss
374E  3B D1				cmp		dx,cx
3750  74 05				je		L$872
3752  26 8C 1E 94 06			mov		word ptr es:[0x694],ds
3757				L$872:
3757  89 7F 02				mov		0x2[bx],di
375A  C3				ret
375B				L$873:
375B  26 C6 06 9A 06 02			mov		byte ptr es:[0x69a],0x02
3761				L$874:
3761  3D FE FF				cmp		ax,0xfffe
3764  74 25				je		L$877
3766  8B FE				mov		di,si
3768  03 F0				add		si,ax
376A				L$875:
376A  AD				lodsw
376B  A8 01				test		al,0x01
376D  74 F2				je		L$874
376F  8B FE				mov		di,si
3771				L$876:
3771  48				dec		ax
3772  3B C1				cmp		ax,cx
3774  73 BD				jae		L$869
3776  8B D0				mov		dx,ax
3778  03 F0				add		si,ax
377A  AD				lodsw
377B  A8 01				test		al,0x01
377D  74 E2				je		L$874
377F  03 C2				add		ax,dx
3781  05 02 00				add		ax,0x0002
3784  8B F7				mov		si,di
3786  89 44 FE				mov		-0x2[si],ax
3789  EB E6				jmp		L$876
378B				L$877:
378B  8B 47 08				mov		ax,0x8[bx]
378E  0B C0				or		ax,ax
3790  74 04				je		L$878
3792  8E D8				mov		ds,ax
3794  EB 14				jmp		L$879
3796				L$878:
3796  26 FE 0E 9A 06			dec		byte ptr es:[0x69a]
379B  74 11				je		L$880
379D  8C D8				mov		ax,ds
379F  8C D7				mov		di,ss
37A1  3B C7				cmp		ax,di
37A3  74 05				je		L$879
37A5  26 8E 1E 90 06			mov		ds,word ptr es:[0x690]
37AA				L$879:
37AA  8B 37				mov		si,[bx]
37AC  EB BC				jmp		L$875
37AE				L$880:
37AE  8B 77 06				mov		si,0x6[bx]
37B1  33 C0				xor		ax,ax
37B3  E8 6A 00				call		L$891
37B6  3B C6				cmp		ax,si
37B8  74 0D				je		L$881
37BA  24 01				and		al,0x01
37BC  40				inc		ax
37BD  40				inc		ax
37BE  98				cbw
37BF  E8 5E 00				call		L$891
37C2  74 0D				je		L$882
37C4  FE 4D FE				dec		byte ptr -0x2[di]
37C7				L$881:
37C7  E8 1C 00				call		L$884
37CA  74 05				je		L$882
37CC  96				xchg		ax,si
37CD  4E				dec		si
37CE  4E				dec		si
37CF  EB 99				jmp		L$875
37D1				L$882:
37D1  8C D8				mov		ax,ds
37D3  8C D1				mov		cx,ss
37D5  3B C1				cmp		ax,cx
37D7  74 04				je		L$883
37D9  26 A3 94 06			mov		es:[0x694],ax
37DD				L$883:
37DD  8B 07				mov		ax,[bx]
37DF  89 47 02				mov		0x2[bx],ax
37E2  33 C0				xor		ax,ax
37E4  99				cwd
37E5  C3				ret
37E6				L$884:
37E6  51				push		cx
37E7  8B 45 FE				mov		ax,-0x2[di]
37EA  A8 01				test		al,0x01
37EC  74 03				je		L$885
37EE  2B C8				sub		cx,ax
37F0  49				dec		cx
37F1				L$885:
37F1  41				inc		cx
37F2  41				inc		cx
37F3  BA FF 7F				mov		dx,0x7fff
37F6				L$886:
37F6  26 3B 16 96 06			cmp		dx,es:[0x696]
37FB  76 04				jbe		L$887
37FD  D1 EA				shr		dx,0x01
37FF  75 F5				jne		L$886
3801				L$887:
3801  8B C1				mov		ax,cx
3803  03 C6				add		ax,si
3805  72 15				jb		L$889
3807  03 C2				add		ax,dx
3809  72 0D				jb		L$888
380B  F7 D2				not		dx
380D  23 C2				and		ax,dx
380F  2B C6				sub		ax,si
3811  E8 0C 00				call		L$891
3814  75 08				jne		L$890
3816  F7 D2				not		dx
3818				L$888:
3818  D1 EA				shr		dx,0x01
381A  75 E5				jne		L$887
381C				L$889:
381C  33 C0				xor		ax,ax
381E				L$890:
381E  59				pop		cx
381F  C3				ret
3820				L$891:
3820  52				push		dx
3821  51				push		cx
3822  E8 1D 00				call		L$893
3825  74 18				je		L$892
3827  57				push		di
3828  8B FE				mov		di,si
382A  8B F0				mov		si,ax
382C  03 F2				add		si,dx
382E  C7 44 FE FE FF			mov		word ptr -0x2[si],0xfffe
3833  89 77 06				mov		0x6[bx],si
3836  8B D6				mov		dx,si
3838  2B D7				sub		dx,di
383A  4A				dec		dx
383B  89 55 FE				mov		-0x2[di],dx
383E  58				pop		ax
383F				L$892:
383F  59				pop		cx
3840  5A				pop		dx
3841  C3				ret
3842				L$893:
3842  53				push		bx
3843  50				push		ax
3844  33 D2				xor		dx,dx
3846  1E				push		ds
3847  52				push		dx
3848  52				push		dx
3849  50				push		ax
384A  B8 01 00				mov		ax,0x0001
384D  50				push		ax
384E  06				push		es
384F  1F				pop		ds
3850  E8 0F 00				call		L$895
3853  83 C4 08				add		sp,0x0008
3856  83 FA FF				cmp		dx,0xffff
3859  1F				pop		ds
385A  5A				pop		dx
385B  5B				pop		bx
385C  74 02				je		L$894
385E  0B D2				or		dx,dx
3860				L$894:
3860  C3				ret
3861  00                                              .
3862				L$895:
3862  55				push		bp
3863  8B EC				mov		bp,sp
3865  56				push		si
3866  57				push		di
3867  06				push		es
3868  83 7E 08 00			cmp		word ptr 0x8[bp],0x0000
386C  75 38				jne		L$898
386E  BF 9A 04				mov		di,0x049a
3871  8B 56 06				mov		dx,0x6[bp]
3874  8B 46 04				mov		ax,0x4[bp]
3877  48				dec		ax
3878  75 07				jne		L$896
387A  E8 53 00				call		L$901
387D  72 27				jb		L$898
387F  EB 48				jmp		L$900
3881				L$896:
3881  8B 36 EA 04			mov		si,ds:[0x4ea]
3885  48				dec		ax
3886  74 11				je		L$897
3888  3B F7				cmp		si,di
388A  74 0D				je		L$897
388C  8B 44 02				mov		ax,0x2[si]
388F  89 46 0C				mov		0xc[bp],ax
3892  56				push		si
3893  E8 3A 00				call		L$901
3896  5E				pop		si
3897  73 30				jae		L$900
3899				L$897:
3899  83 C6 04				add		si,0x0004
389C  81 FE EA 04			cmp		si,0x04ea
38A0  73 04				jae		L$898
38A2  0B D2				or		dx,dx
38A4  75 06				jne		L$899
38A6				L$898:
38A6  B8 FF FF				mov		ax,0xffff
38A9  99				cwd
38AA  EB 1D				jmp		L$900
38AC				L$899:
38AC  8B DA				mov		bx,dx
38AE  83 C3 0F				add		bx,0x000f
38B1  D1 DB				rcr		bx,0x01
38B3  B1 03				mov		cl,0x03
38B5  D3 EB				shr		bx,cl
38B7  B4 48				mov		ah,0x48
38B9  CD 21				int		0x21
38BB  72 E9				jb		L$898
38BD  92				xchg		ax,dx
38BE  89 04				mov		[si],ax
38C0  89 54 02				mov		0x2[si],dx
38C3  89 36 EA 04			mov		ds:[0x4ea],si
38C7  33 C0				xor		ax,ax
38C9				L$900:
38C9  07				pop		es
38CA  5F				pop		di
38CB  5E				pop		si
38CC  8B E5				mov		sp,bp
38CE  5D				pop		bp
38CF  C3				ret
38D0				L$901:
38D0  8B 4E 0C				mov		cx,0xc[bp]
38D3  8B F7				mov		si,di
38D5				L$902:
38D5  39 4C 02				cmp		0x2[si],cx
38D8  74 0C				je		L$903
38DA  83 C6 04				add		si,0x0004
38DD  81 FE EA 04			cmp		si,0x04ea
38E1  75 F2				jne		L$902
38E3  F9				stc
38E4  EB 3F				jmp		L$907
38E6				L$903:
38E6  8B DA				mov		bx,dx
38E8  03 1C				add		bx,[si]
38EA  72 39				jb		L$907
38EC  8B D3				mov		dx,bx
38EE  8E C1				mov		es,cx
38F0  3B F7				cmp		si,di
38F2  75 06				jne		L$904
38F4  39 1E 94 04			cmp		ds:[0x494],bx
38F8  73 26				jae		L$906
38FA				L$904:
38FA  83 C3 0F				add		bx,0x000f
38FD  D1 DB				rcr		bx,0x01
38FF  D1 EB				shr		bx,0x01
3901  D1 EB				shr		bx,0x01
3903  D1 EB				shr		bx,0x01
3905  3B F7				cmp		si,di
3907  75 09				jne		L$905
3909  03 D9				add		bx,cx
390B  A1 0B 05				mov		ax,ds:[0x50b]
390E  2B D8				sub		bx,ax
3910  8E C0				mov		es,ax
3912				L$905:
3912  B4 4A				mov		ah,0x4a
3914  CD 21				int		0x21
3916  72 0D				jb		L$907
3918  3B F7				cmp		si,di
391A  75 04				jne		L$906
391C  89 16 94 04			mov		ds:[0x494],dx
3920				L$906:
3920  92				xchg		ax,dx
3921  87 04				xchg		[si],ax
3923  8B D1				mov		dx,cx
3925				L$907:
3925  C3				ret
3926				L$908:
3926  55				push		bp
3927  8B EC				mov		bp,sp
3929  8B D7				mov		dx,di
392B  8B DE				mov		bx,si
392D  8C D8				mov		ax,ds
392F  8E C0				mov		es,ax
3931  8B 7E 04				mov		di,0x4[bp]
3934  33 C0				xor		ax,ax
3936  B9 FF FF				mov		cx,0xffff
3939  F2 AE				repne scasb
393B  8D 75 FF				lea		si,-0x1[di]
393E  8B 7E 06				mov		di,0x6[bp]
3941  B9 FF FF				mov		cx,0xffff
3944  F2 AE				repne scasb
3946  F7 D1				not		cx
3948  2B F9				sub		di,cx
394A  87 FE				xchg		si,di
394C  8B 46 04				mov		ax,0x4[bp]
394F  F7 C6 01 00			test		si,0x0001
3953  74 02				je		L$909
3955  A4				movsb
3956  49				dec		cx
3957				L$909:
3957  D1 E9				shr		cx,0x01
3959  F3 A5				rep movsw
395B  13 C9				adc		cx,cx
395D  F3 A4				rep movsb
395F  8B F3				mov		si,bx
3961  8B FA				mov		di,dx
3963  5D				pop		bp
3964  C3				ret
3965  00                                              .
3966				L$910:
3966  55				push		bp
3967  8B EC				mov		bp,sp
3969  8B D7				mov		dx,di
396B  8B DE				mov		bx,si
396D  8B 76 06				mov		si,0x6[bp]
3970  8B FE				mov		di,si
3972  8C D8				mov		ax,ds
3974  8E C0				mov		es,ax
3976  33 C0				xor		ax,ax
3978  B9 FF FF				mov		cx,0xffff
397B  F2 AE				repne scasb
397D  F7 D1				not		cx
397F  8B 7E 04				mov		di,0x4[bp]
3982  8B C7				mov		ax,di
3984  A8 01				test		al,0x01
3986  74 02				je		L$911
3988  A4				movsb
3989  49				dec		cx
398A				L$911:
398A  D1 E9				shr		cx,0x01
398C  F3 A5				rep movsw
398E  13 C9				adc		cx,cx
3990  F3 A4				rep movsb
3992  8B F3				mov		si,bx
3994  8B FA				mov		di,dx
3996  5D				pop		bp
3997  C3				ret
3998				L$912:
3998  55				push		bp
3999  8B EC				mov		bp,sp
399B  8B D7				mov		dx,di
399D  8B DE				mov		bx,si
399F  8C D8				mov		ax,ds
39A1  8E C0				mov		es,ax
39A3  8B 76 04				mov		si,0x4[bp]
39A6  8B 7E 06				mov		di,0x6[bp]
39A9  33 C0				xor		ax,ax
39AB  B9 FF FF				mov		cx,0xffff
39AE  F2 AE				repne scasb
39B0  F7 D1				not		cx
39B2  2B F9				sub		di,cx
39B4  F3 A6				repe cmpsb
39B6  74 05				je		L$913
39B8  1B C0				sbb		ax,ax
39BA  1D FF FF				sbb		ax,0xffff
39BD				L$913:
39BD  8B F3				mov		si,bx
39BF  8B FA				mov		di,dx
39C1  5D				pop		bp
39C2  C3				ret
39C3  00                                              .
39C4				L$914:
39C4  55				push		bp
39C5  8B EC				mov		bp,sp
39C7  8B D7				mov		dx,di
39C9  8C D8				mov		ax,ds
39CB  8E C0				mov		es,ax
39CD  8B 7E 04				mov		di,0x4[bp]
39D0  33 C0				xor		ax,ax
39D2  B9 FF FF				mov		cx,0xffff
39D5  F2 AE				repne scasb
39D7  F7 D1				not		cx
39D9  49				dec		cx
39DA  91				xchg		ax,cx
39DB  8B FA				mov		di,dx
39DD  5D				pop		bp
39DE  C3				ret
39DF  00                                              .
39E0				L$915:
39E0  55				push		bp
39E1  8B EC				mov		bp,sp
39E3  57				push		di
39E4  56				push		si
39E5  1E				push		ds
39E6  07				pop		es
39E7  8B 4E 08				mov		cx,0x8[bp]
39EA  E3 26				jcxz		L$917
39EC  8B D9				mov		bx,cx
39EE  8B 7E 04				mov		di,0x4[bp]
39F1  8B F7				mov		si,di
39F3  33 C0				xor		ax,ax
39F5  F2 AE				repne scasb
39F7  F7 D9				neg		cx
39F9  03 CB				add		cx,bx
39FB  8B FE				mov		di,si
39FD  8B 76 06				mov		si,0x6[bp]
3A00  F3 A6				repe cmpsb
3A02  8A 44 FF				mov		al,-0x1[si]
3A05  33 C9				xor		cx,cx
3A07  3A 45 FF				cmp		al,-0x1[di]
3A0A  77 04				ja		L$916
3A0C  74 04				je		L$917
3A0E  49				dec		cx
3A0F  49				dec		cx
3A10				L$916:
3A10  F7 D1				not		cx
3A12				L$917:
3A12  8B C1				mov		ax,cx
3A14  5E				pop		si
3A15  5F				pop		di
3A16  8B E5				mov		sp,bp
3A18  5D				pop		bp
3A19  C3				ret
3A1A				L$918:
3A1A  55				push		bp
3A1B  8B EC				mov		bp,sp
3A1D  56				push		si
3A1E  57				push		di
3A1F  B3 00				mov		bl,0x00
3A21  E9 CA 00				jmp		L$928
3A24				L$919:
3A24  55				push		bp
3A25  8B EC				mov		bp,sp
3A27  8B 5E 04				mov		bx,0x4[bp]
3A2A  3B 1E 12 05			cmp		bx,ds:[0x512]
3A2E  7D 11				jge		L$920
3A30  83 FB 00				cmp		bx,0x0000
3A33  7C 0C				jl		L$920
3A35  F6 87 14 05 40			test		byte ptr 0x514[bx],0x40
3A3A  74 05				je		L$920
3A3C  B8 01 00				mov		ax,0x0001
3A3F  EB 02				jmp		L$921
3A41				L$920:
3A41  33 C0				xor		ax,ax
3A43				L$921:
3A43  8B E5				mov		sp,bp
3A45  5D				pop		bp
3A46  C3				ret
3A47  00                                              .
3A48				L$922:
3A48  55				push		bp
3A49  8B EC				mov		bp,sp
3A4B  56				push		si
3A4C  57				push		di
3A4D  8B 7E 04				mov		di,0x4[bp]
3A50  8B 05				mov		ax,[di]
3A52  8B 5D 02				mov		bx,0x2[di]
3A55  8B 4D 04				mov		cx,0x4[di]
3A58  8B 55 06				mov		dx,0x6[di]
3A5B  8B 75 08				mov		si,0x8[di]
3A5E  8B 7D 0A				mov		di,0xa[di]
3A61  CD 21				int		0x21
3A63  57				push		di
3A64  8B 7E 06				mov		di,0x6[bp]
3A67  89 05				mov		[di],ax
3A69  89 5D 02				mov		0x2[di],bx
3A6C  89 4D 04				mov		0x4[di],cx
3A6F  89 55 06				mov		0x6[di],dx
3A72  89 75 08				mov		0x8[di],si
3A75  8F 45 0A				pop		word ptr 0xa[di]
3A78  72 04				jb		L$923
3A7A  33 F6				xor		si,si
3A7C  EB 08				jmp		L$924
3A7E				L$923:
3A7E  E8 BF ED				call		L$648
3A81  BE 01 00				mov		si,0x0001
3A84  8B 05				mov		ax,[di]
3A86				L$924:
3A86  89 75 0C				mov		0xc[di],si
3A89  5F				pop		di
3A8A  5E				pop		si
3A8B  8B E5				mov		sp,bp
3A8D  5D				pop		bp
3A8E  C3				ret
3A8F  00                                              .
3A90				L$925:
3A90  55				push		bp
3A91  8B EC				mov		bp,sp
3A93  56				push		si
3A94  57				push		di
3A95  8B 7E 04				mov		di,0x4[bp]
3A98  8B 05				mov		ax,[di]
3A9A  8B 5D 02				mov		bx,0x2[di]
3A9D  8B 4D 04				mov		cx,0x4[di]
3AA0  8B 55 06				mov		dx,0x6[di]
3AA3  8B 75 08				mov		si,0x8[di]
3AA6  FF 75 0A				push		word ptr 0xa[di]
3AA9  8B 7E 08				mov		di,0x8[bp]
3AAC  8E 05				mov		es,word ptr [di]
3AAE  8E 5D 06				mov		ds,word ptr 0x6[di]
3AB1  5F				pop		di
3AB2  CD 21				int		0x21
3AB4  57				push		di
3AB5  1E				push		ds
3AB6  8C D7				mov		di,ss
3AB8  8E DF				mov		ds,di
3ABA  8B 7E 08				mov		di,0x8[bp]
3ABD  8C 05				mov		word ptr [di],es
3ABF  8F 45 06				pop		word ptr 0x6[di]
3AC2  8B 7E 06				mov		di,0x6[bp]
3AC5  89 05				mov		[di],ax
3AC7  89 5D 02				mov		0x2[di],bx
3ACA  89 4D 04				mov		0x4[di],cx
3ACD  89 55 06				mov		0x6[di],dx
3AD0  89 75 08				mov		0x8[di],si
3AD3  8F 45 0A				pop		word ptr 0xa[di]
3AD6  72 04				jb		L$926
3AD8  33 F6				xor		si,si
3ADA  EB 08				jmp		L$927
3ADC				L$926:
3ADC  E8 61 ED				call		L$648
3ADF  BE 01 00				mov		si,0x0001
3AE2  8B 05				mov		ax,[di]
3AE4				L$927:
3AE4  89 75 0C				mov		0xc[di],si
3AE7  5F				pop		di
3AE8  5E				pop		si
3AE9  8B E5				mov		sp,bp
3AEB  5D				pop		bp
3AEC  C3				ret
3AED  00                                              .
3AEE				L$928:
3AEE  8B 4E 0A				mov		cx,0xa[bp]
3AF1  8B 46 04				mov		ax,0x4[bp]
3AF4  8B 56 06				mov		dx,0x6[bp]
3AF7  8B 7E 08				mov		di,0x8[bp]
3AFA  57				push		di
3AFB  1E				push		ds
3AFC  07				pop		es
3AFD  FC				cld
3AFE  93				xchg		ax,bx
3AFF  0A C0				or		al,al
3B01  74 13				je		L$929
3B03  83 F9 0A				cmp		cx,0x000a
3B06  75 0E				jne		L$929
3B08  0B D2				or		dx,dx
3B0A  79 0A				jns		L$929
3B0C  B0 2D				mov		al,0x2d
3B0E  AA				stosb
3B0F  F7 DB				neg		bx
3B11  83 D2 00				adc		dx,0x0000
3B14  F7 DA				neg		dx
3B16				L$929:
3B16  8B F7				mov		si,di
3B18				L$930:
3B18  92				xchg		ax,dx
3B19  33 D2				xor		dx,dx
3B1B  0B C0				or		ax,ax
3B1D  74 02				je		L$931
3B1F  F7 F1				div		cx
3B21				L$931:
3B21  93				xchg		ax,bx
3B22  F7 F1				div		cx
3B24  92				xchg		ax,dx
3B25  87 D3				xchg		bx,dx
3B27  04 30				add		al,0x30
3B29  3C 39				cmp		al,0x39
3B2B  76 02				jbe		L$932
3B2D  04 27				add		al,0x27
3B2F				L$932:
3B2F  AA				stosb
3B30  8B C2				mov		ax,dx
3B32  0B C3				or		ax,bx
3B34  75 E2				jne		L$930
3B36  88 05				mov		[di],al
3B38				L$933:
3B38  4F				dec		di
3B39  AC				lodsb
3B3A  86 05				xchg		[di],al
3B3C  88 44 FF				mov		-0x1[si],al
3B3F  8D 44 01				lea		ax,0x1[si]
3B42  3B C7				cmp		ax,di
3B44  72 F2				jb		L$933
3B46  58				pop		ax
3B47  5F				pop		di
3B48  5E				pop		si
3B49  8B E5				mov		sp,bp
3B4B  5D				pop		bp
3B4C  C3				ret
3B4D  00                                              .
3B4E				L$934:
3B4E  55				push		bp
3B4F  8B EC				mov		bp,sp
3B51  B4 39				mov		ah,0x39
3B53  EB 05				jmp		L$935
3B55  55				push		bp
3B56  8B EC				mov		bp,sp
3B58  B4 3B				mov		ah,0x3b
3B5A				L$935:
3B5A  8B 56 04				mov		dx,0x4[bp]
3B5D  CD 21				int		0x21
3B5F				L$936:
3B5F  E9 BE EC				jmp		L$643
3B62  55				push		bp
3B63  8B EC				mov		bp,sp
3B65  B4 3A				mov		ah,0x3a
3B67  8B 56 04				mov		dx,0x4[bp]
3B6A  CD 21				int		0x21
3B6C  73 F1				jae		L$936
3B6E  3D 10 00				cmp		ax,0x0010
3B71  75 EC				jne		L$936
3B73  92				xchg		ax,dx
3B74  93				xchg		ax,bx
3B75				L$937:
3B75  8A 07				mov		al,[bx]
3B77  43				inc		bx
3B78  3C 00				cmp		al,0x00
3B7A  74 0A				je		L$939
3B7C  3C 3F				cmp		al,0x3f
3B7E  74 04				je		L$938
3B80  3C 2A				cmp		al,0x2a
3B82  75 F1				jne		L$937
3B84				L$938:
3B84  B2 03				mov		dl,0x03
3B86				L$939:
3B86  92				xchg		ax,dx
3B87  F9				stc
3B88  EB D5				jmp		L$936
3B8A  55				push		bp
3B8B  8B EC				mov		bp,sp
3B8D  53				push		bx
3B8E  51				push		cx
3B8F  52				push		dx
3B90  56				push		si
3B91  57				push		di
3B92  1E				push		ds
3B93  06				push		es
3B94  16				push		ss
3B95  55				push		bp
3B96  C5 76 0A				lds		si,0xa[bp]
3B99  8B 04				mov		ax,[si]
3B9B  C5 76 06				lds		si,0x6[bp]
3B9E  8B 4E 0E				mov		cx,0xe[bp]
3BA1				L$940:
3BA1  AC				lodsb
3BA2  3C 61				cmp		al,0x61
3BA4  72 09				jb		L$941
3BA6  3C 7B				cmp		al,0x7b
3BA8  73 05				jae		L$941
3BAA  04 E0				add		al,0xe0
3BAC  88 44 FF				mov		-0x1[si],al
3BAF				L$941:
3BAF  E2 F0				loop		L$940
3BB1  5D				pop		bp
3BB2  17				pop		ss
3BB3  07				pop		es
3BB4  1F				pop		ds
3BB5  5F				pop		di
3BB6  5E				pop		si
3BB7  5A				pop		dx
3BB8  59				pop		cx
3BB9  5B				pop		bx
3BBA  8B E5				mov		sp,bp
3BBC  5D				pop		bp
3BBD  CA 0A 00				retf		0x000a
3BC0  55				push		bp
3BC1  8B EC				mov		bp,sp
3BC3  53				push		bx
3BC4  51				push		cx
3BC5  52				push		dx
3BC6  56				push		si
3BC7  57				push		di
3BC8  1E				push		ds
3BC9  06				push		es
3BCA  16				push		ss
3BCB  55				push		bp
3BCC  B8 00 63				mov		ax,0x6300
3BCF  CD 21				int		0x21
3BD1  72 11				jb		L$943
3BD3  C4 7E 06				les		di,0x6[bp]
3BD6  8B 4E 0E				mov		cx,0xe[bp]
3BD9				L$942:
3BD9  8A 04				mov		al,[si]
3BDB  26 88 05				mov		es:[di],al
3BDE  46				inc		si
3BDF  47				inc		di
3BE0  E2 F7				loop		L$942
3BE2  33 C0				xor		ax,ax
3BE4				L$943:
3BE4  5D				pop		bp
3BE5  17				pop		ss
3BE6  07				pop		es
3BE7  1F				pop		ds
3BE8  5F				pop		di
3BE9  5E				pop		si
3BEA  5A				pop		dx
3BEB  59				pop		cx
3BEC  5B				pop		bx
3BED  8B E5				mov		sp,bp
3BEF  5D				pop		bp
3BF0  CA 0A 00				retf		0x000a
3BF3  00 00				add		[bx+si],al
3BF5  00 00				add		[bx+si],al
3BF7  00 00				add		[bx+si],al
3BF9  00 00				add		[bx+si],al
3BFB  00 00				add		[bx+si],al
3BFD  00 00				add		[bx+si],al
3BFF  00 00				add		[bx+si],al
3C01  00 00				add		[bx+si],al
3C03  00 00				add		[bx+si],al
3C05  00 00				add		[bx+si],al
3C07  00 4D 53				add		0x53[di],cl
3C0A  20 52 75				and		0x75[bp+si],dl
3C0D  6E				outsb
3C0E  2D 54 69				sub		ax,0x6954
3C11  6D				insw
3C12  65 20 4C 69			and		gs:0x69[si],cl
3C16  62 72 61				bound		si,0x61[bp+si]
3C19  72 79				jb		L$946
3C1B  20 2D				and		[di],ch
3C1D  20 43 6F				and		0x6f[bp+di],al
3C20  70 79				jo		L$947
3C22  72 69				jb		L$945
3C24  67 68 74 20			push		0x2074
3C28  28 63 29				sub		0x29[bp+di],ah
3C2B  20 31				and		[bx+di],dh
3C2D  39 38				cmp		[bx+si],di
3C2F  38 2C				cmp		[si],ch
3C31  20 4D 69				and		0x69[di],cl
3C34  63 72 6F				arpl		0x6f[bp+si],si
3C37  73 6F				jae		L$948
3C39  66 74 20				je		L$944
3C3C  43				inc		bx
3C3D  6F				outsw
3C3E  72 70				jb		L$949
3C40  11 00				adc		[bx+si],ax
3C42  20 00				and		[bx+si],al
3C44  2F				das
3C45  5C				pop		sp
3C46  00 5C 2A				add		0x2a[si],bl
3C49  2E 2A 00				sub		al,cs:[bx+si]
3C4C  00 00				add		[bx+si],al
3C4E  00 00				add		[bx+si],al
3C50  00 00				add		[bx+si],al
3C52  00 00				add		[bx+si],al
3C54  00 00				add		[bx+si],al
3C56  00 00				add		[bx+si],al
3C58  00 00				add		[bx+si],al
3C5A  00 00				add		[bx+si],al
3C5C				L$944:
3C5C  00 00				add		[bx+si],al
3C5E  00 00				add		[bx+si],al
3C60  00 00				add		[bx+si],al
3C62  00 00				add		[bx+si],al
3C64  00 00				add		[bx+si],al
3C66  00 00				add		[bx+si],al
3C68  00 00				add		[bx+si],al
3C6A  00 00				add		[bx+si],al
3C6C  00 00				add		[bx+si],al
3C6E  00 00				add		[bx+si],al
3C70  00 00				add		[bx+si],al
3C72  00 00				add		[bx+si],al
3C74  00 00				add		[bx+si],al
3C76  00 00				add		[bx+si],al
3C78  00 00				add		[bx+si],al
3C7A  00 00				add		[bx+si],al
3C7C  00 00				add		[bx+si],al
3C7E  00 00				add		[bx+si],al
3C80  00 00				add		[bx+si],al
3C82  00 00				add		[bx+si],al
3C84  00 00				add		[bx+si],al
3C86  00 00				add		[bx+si],al
3C88  00 00				add		[bx+si],al
3C8A  00 00				add		[bx+si],al
3C8C  00                                              .
3C8D				L$945:
3C8D  00 00				add		[bx+si],al
3C8F  00 00				add		[bx+si],al
3C91  00 00				add		[bx+si],al
3C93  00                                              .
3C94				L$946:
3C94  00 00				add		[bx+si],al
3C96  00 00				add		[bx+si],al
3C98  00 00				add		[bx+si],al
3C9A  00                                              .
3C9B				L$947:
3C9B  00 00				add		[bx+si],al
3C9D  00 00				add		[bx+si],al
3C9F  00 00				add		[bx+si],al
3CA1  00 00				add		[bx+si],al
3CA3  00 00				add		[bx+si],al
3CA5  00 00				add		[bx+si],al
3CA7  00                                              .
3CA8				L$948:
3CA8  00 00				add		[bx+si],al
3CAA  00 00				add		[bx+si],al
3CAC  00 00				add		[bx+si],al
3CAE  00 00				add		[bx+si],al
3CB0				L$949:
3CB0  00 00				add		[bx+si],al
3CB2  00 00				add		[bx+si],al
3CB4  00 00				add		[bx+si],al
3CB6  00 00				add		[bx+si],al
3CB8  00 00				add		[bx+si],al
3CBA  00 00				add		[bx+si],al
3CBC  00 00				add		[bx+si],al
3CBE  00 00				add		[bx+si],al
3CC0  00 00				add		[bx+si],al
3CC2  00 00				add		[bx+si],al
3CC4  00 00				add		[bx+si],al
3CC6  00 00				add		[bx+si],al
3CC8  00 00				add		[bx+si],al
3CCA  00 00				add		[bx+si],al
3CCC  00 00				add		[bx+si],al
3CCE  00 00				add		[bx+si],al
3CD0  00 00				add		[bx+si],al
3CD2  00 00				add		[bx+si],al
3CD4  00 00				add		[bx+si],al
3CD6  00 00				add		[bx+si],al
3CD8  00 00				add		[bx+si],al
3CDA  00 00				add		[bx+si],al
3CDC  00 00				add		[bx+si],al
3CDE  00 00				add		[bx+si],al
3CE0  00 00				add		[bx+si],al
3CE2  00 00				add		[bx+si],al
3CE4  00 00				add		[bx+si],al
3CE6  00 00				add		[bx+si],al
3CE8  00 00				add		[bx+si],al
3CEA  00 00				add		[bx+si],al
3CEC  00 00				add		[bx+si],al
3CEE  00 00				add		[bx+si],al
3CF0  00 00				add		[bx+si],al
3CF2  00 00				add		[bx+si],al
3CF4  00 00				add		[bx+si],al
3CF6  00 00				add		[bx+si],al
3CF8  00 00				add		[bx+si],al
3CFA  00 00				add		[bx+si],al
3CFC  00 00				add		[bx+si],al
3CFE  00 00				add		[bx+si],al
3D00  00 00				add		[bx+si],al
3D02  00 00				add		[bx+si],al
3D04  00 00				add		[bx+si],al
3D06  00 00				add		[bx+si],al
3D08  00 00				add		[bx+si],al
3D0A  00 00				add		[bx+si],al
3D0C  00 00				add		[bx+si],al
3D0E  00 00				add		[bx+si],al
3D10  00 00				add		[bx+si],al
3D12  00 00				add		[bx+si],al
3D14  00 00				add		[bx+si],al
3D16  00 00				add		[bx+si],al
3D18  00 00				add		[bx+si],al
3D1A  00 00				add		[bx+si],al
3D1C  00 00				add		[bx+si],al
3D1E  00 00				add		[bx+si],al
3D20  00 00				add		[bx+si],al
3D22  00 00				add		[bx+si],al
3D24  00 00				add		[bx+si],al
3D26  00 00				add		[bx+si],al
3D28  00 00				add		[bx+si],al
3D2A  00 00				add		[bx+si],al
3D2C  00 00				add		[bx+si],al
3D2E  00 00				add		[bx+si],al
3D30  00 00				add		[bx+si],al
3D32  00 00				add		[bx+si],al
3D34  00 00				add		[bx+si],al
3D36  00 00				add		[bx+si],al
3D38  00 00				add		[bx+si],al
3D3A  00 00				add		[bx+si],al
3D3C  00 00				add		[bx+si],al
3D3E  00 00				add		[bx+si],al
3D40  00 00				add		[bx+si],al
3D42  00 00				add		[bx+si],al
3D44  00 00				add		[bx+si],al
3D46  00 00				add		[bx+si],al
3D48  00 00				add		[bx+si],al
3D4A  00 00				add		[bx+si],al
3D4C  00 00				add		[bx+si],al
3D4E  00 00				add		[bx+si],al
3D50  00 00				add		[bx+si],al
3D52  00 00				add		[bx+si],al
3D54  00 00				add		[bx+si],al
3D56  00 00				add		[bx+si],al
3D58  00 00				add		[bx+si],al
3D5A  00 00				add		[bx+si],al
3D5C  00 00				add		[bx+si],al
3D5E  00 00				add		[bx+si],al
3D60  00 00				add		[bx+si],al
3D62  00 00				add		[bx+si],al
3D64  00 00				add		[bx+si],al
3D66  00 00				add		[bx+si],al
3D68  00 00				add		[bx+si],al
3D6A  00 00				add		[bx+si],al
3D6C  00 00				add		[bx+si],al
3D6E  00 00				add		[bx+si],al
3D70  00 00				add		[bx+si],al
3D72  00 00				add		[bx+si],al
3D74  00 00				add		[bx+si],al
3D76  00 00				add		[bx+si],al
3D78  00 00				add		[bx+si],al
3D7A  00 00				add		[bx+si],al
3D7C  00 00				add		[bx+si],al
3D7E  00 00				add		[bx+si],al
3D80  00 00				add		[bx+si],al
3D82  00 00				add		[bx+si],al
3D84  00 00				add		[bx+si],al
3D86  00 00				add		[bx+si],al
3D88  00 00				add		[bx+si],al
3D8A  00 00				add		[bx+si],al
3D8C  00 00				add		[bx+si],al
3D8E  00 00				add		[bx+si],al
3D90  4A				dec		dx
3D91  4F				dec		di
3D92  49				dec		cx
3D93  4E				dec		si
3D94  00 00				add		[bx+si],al
3D96  00 00				add		[bx+si],al
3D98  00 00				add		[bx+si],al
3D9A  00 00				add		[bx+si],al
3D9C  00 00				add		[bx+si],al
3D9E  00 00				add		[bx+si],al
3DA0  00 00				add		[bx+si],al
3DA2  00 00				add		[bx+si],al
3DA4  00 00				add		[bx+si],al
3DA6  00 00				add		[bx+si],al
3DA8  00 00				add		[bx+si],al
3DAA  00 00				add		[bx+si],al
3DAC  00 00				add		[bx+si],al
3DAE  00 00				add		[bx+si],al
3DB0  00 00				add		[bx+si],al
3DB2  00 00				add		[bx+si],al
3DB4  00 00				add		[bx+si],al
3DB6  00 00				add		[bx+si],al
3DB8  00 00				add		[bx+si],al
3DBA  00 00				add		[bx+si],al
3DBC  00 00				add		[bx+si],al
3DBE  00 00				add		[bx+si],al
3DC0  00 00				add		[bx+si],al
3DC2  00 00				add		[bx+si],al
3DC4  00 00				add		[bx+si],al
3DC6  00 00				add		[bx+si],al
3DC8  00 00				add		[bx+si],al
3DCA  00 00				add		[bx+si],al
3DCC  00 00				add		[bx+si],al
3DCE  00 00				add		[bx+si],al
3DD0  00 00				add		[bx+si],al
3DD2  00 00				add		[bx+si],al
3DD4  00 00				add		[bx+si],al
3DD6  00 00				add		[bx+si],al
3DD8  00 00				add		[bx+si],al
3DDA  00 00				add		[bx+si],al
3DDC  00 00				add		[bx+si],al
3DDE  00 00				add		[bx+si],al
3DE0  00 00				add		[bx+si],al
3DE2  00 00				add		[bx+si],al
3DE4  00 00				add		[bx+si],al
3DE6  00 00				add		[bx+si],al
3DE8  00 00				add		[bx+si],al
3DEA  00 00				add		[bx+si],al
3DEC  00 00				add		[bx+si],al
3DEE  00 00				add		[bx+si],al
3DF0  00 00				add		[bx+si],al
3DF2  00 00				add		[bx+si],al
3DF4  00 00				add		[bx+si],al
3DF6  00 00				add		[bx+si],al
3DF8  00 00				add		[bx+si],al
3DFA  00 00				add		[bx+si],al
3DFC  00 00				add		[bx+si],al
3DFE  00 00				add		[bx+si],al
3E00  00 00				add		[bx+si],al
3E02  00 00				add		[bx+si],al
3E04  00 00				add		[bx+si],al
3E06  00 00				add		[bx+si],al
3E08  00 00				add		[bx+si],al
3E0A  00 00				add		[bx+si],al
3E0C  00 00				add		[bx+si],al
3E0E  00 00				add		[bx+si],al
3E10  00 00				add		[bx+si],al
3E12  00 00				add		[bx+si],al
3E14  00 00				add		[bx+si],al
3E16  00 00				add		[bx+si],al
3E18  00 00				add		[bx+si],al
3E1A  00 00				add		[bx+si],al
3E1C  00 00				add		[bx+si],al
3E1E  00 00				add		[bx+si],al
3E20  00 00				add		[bx+si],al
3E22  00 00				add		[bx+si],al
3E24  00 00				add		[bx+si],al
3E26  00 00				add		[bx+si],al
3E28  00 00				add		[bx+si],al
3E2A  00 00				add		[bx+si],al
3E2C  00 00				add		[bx+si],al
3E2E  00 00				add		[bx+si],al
3E30  00 00				add		[bx+si],al
3E32  00 00				add		[bx+si],al
3E34  00 00				add		[bx+si],al
3E36  00 00				add		[bx+si],al
3E38  00 00				add		[bx+si],al
3E3A  00 00				add		[bx+si],al
3E3C  00 00				add		[bx+si],al
3E3E  00 00				add		[bx+si],al
3E40  00 00				add		[bx+si],al
3E42  00 00				add		[bx+si],al
3E44  00 00				add		[bx+si],al
3E46  00 00				add		[bx+si],al
3E48  00 00				add		[bx+si],al
3E4A  00 00				add		[bx+si],al
3E4C  00 00				add		[bx+si],al
3E4E  00 00				add		[bx+si],al
3E50  00 00				add		[bx+si],al
3E52  00 00				add		[bx+si],al
3E54  00 00				add		[bx+si],al
3E56  00 00				add		[bx+si],al
3E58  00 00				add		[bx+si],al
3E5A  00 00				add		[bx+si],al
3E5C  00 00				add		[bx+si],al
3E5E  00 00				add		[bx+si],al
3E60  00 00				add		[bx+si],al
3E62  00 00				add		[bx+si],al
3E64  00 00				add		[bx+si],al
3E66  00 00				add		[bx+si],al
3E68  00 00				add		[bx+si],al
3E6A  00 00				add		[bx+si],al
3E6C  00 00				add		[bx+si],al
3E6E  00 00				add		[bx+si],al
3E70  00 00				add		[bx+si],al
3E72  00 00				add		[bx+si],al
3E74  00 00				add		[bx+si],al
3E76  00 00				add		[bx+si],al
3E78  00 00				add		[bx+si],al
3E7A  00 00				add		[bx+si],al
3E7C  00 00				add		[bx+si],al
3E7E  00 00				add		[bx+si],al
3E80  00 00				add		[bx+si],al
3E82  00 00				add		[bx+si],al
3E84  00 00				add		[bx+si],al
3E86  00 00				add		[bx+si],al
3E88  00 00				add		[bx+si],al
3E8A  00 00				add		[bx+si],al
3E8C  00 00				add		[bx+si],al
3E8E  00 00				add		[bx+si],al
3E90  00 00				add		[bx+si],al
3E92  00 00				add		[bx+si],al
3E94  00 00				add		[bx+si],al
3E96  00 25				add		[di],ah
3E98  63 3A				arpl		[bp+si],di
3E9A  20 3D				and		[di],bh
3E9C  3E 20 25				and		ds:[di],ah
3E9F  73 0A				jae		L$950
3EA1  00 2F				add		[bx],ch
3EA3  44				inc		sp
3EA4  00 00				add		[bx+si],al
3EA6  25 73 0A				and		ax,0x0a73
3EA9  00 5C                                           .\
3EAB				L$950:
3EAB  00 5C 00				add		[si],bl
3EAE  2E 00 2E 2E 00			add		cs:0x2e,ch
3EB3  5C				pop		sp
3EB4  00 5C 00				add		[si],bl
3EB7  30 30				xor		[bx+si],dh
3EB9  00 00				add		[bx+si],al
3EBB  00 00				add		[bx+si],al
3EBD  00 00				add		[bx+si],al
3EBF  00 00				add		[bx+si],al
3EC1  00 00				add		[bx+si],al
3EC3  00 00				add		[bx+si],al
3EC5  00 FF				add		bh,bh
3EC7  FF				????
3EC8  FF				????
3EC9  FF 00				inc		word ptr [bx+si]
3ECB  00 00				add		[bx+si],al
3ECD  00 00				add		[bx+si],al
3ECF  00 00				add		[bx+si],al
3ED1  00 FF				add		bh,bh
3ED3  FF				????
3ED4  FF				????
3ED5  FF 00				inc		word ptr [bx+si]
3ED7  00 00				add		[bx+si],al
3ED9  00 00				add		[bx+si],al
3EDB  00 00				add		[bx+si],al
3EDD  00 FF				add		bh,bh
3EDF  FF				????
3EE0  FF				????
3EE1  FF				????
3EE2  FF				????
3EE3  FF				????
3EE4  FF				????
3EE5  FF 00				inc		word ptr [bx+si]
3EE7  00 00				add		[bx+si],al
3EE9  00 FF				add		bh,bh
3EEB  FF				????
3EEC  FF				????
3EED  FF 00				inc		word ptr [bx+si]
3EEF  00 00				add		[bx+si],al
3EF1  00 00				add		[bx+si],al
3EF3  00 00				add		[bx+si],al
3EF5  0D 0A 00				or		ax,0x000a
3EF8  00 00				add		[bx+si],al
3EFA  00 00				add		[bx+si],al
3EFC  0A 00				or		al,[bx+si]
3EFE  24 24				and		al,0x24
3F00  24 24				and		al,0x24
3F02  24 24				and		al,0x24
3F04  24 24				and		al,0x24
3F06  24 24				and		al,0x24
3F08  24 24				and		al,0x24
3F0A  24 24				and		al,0x24
3F0C  24 24				and		al,0x24
3F0E  24 24				and		al,0x24
3F10  24 24				and		al,0x24
3F12  24 24				and		al,0x24
3F14  24 24				and		al,0x24
3F16  24 24				and		al,0x24
3F18  24 24				and		al,0x24
3F1A  24 24				and		al,0x24
3F1C  24 24				and		al,0x24
3F1E  24 24				and		al,0x24
3F20  24 24				and		al,0x24
3F22  24 24				and		al,0x24
3F24  24 24				and		al,0x24
3F26  24 24				and		al,0x24
3F28  24 24				and		al,0x24
3F2A  24 24				and		al,0x24
3F2C  24 24				and		al,0x24
3F2E  24 24				and		al,0x24
3F30  24 24				and		al,0x24
3F32  24 24				and		al,0x24
3F34  24 24				and		al,0x24
3F36  24 24				and		al,0x24
3F38  24 24				and		al,0x24
3F3A  24 24				and		al,0x24
3F3C  24 24				and		al,0x24
3F3E  24 4D				and		al,0x4d
3F40  53				push		bx
3F41  20 44 4F				and		0x4f[si],al
3F44  53				push		bx
3F45  20 56 65				and		0x65[bp],dl
3F48  72 73				jb		L$953
3F4A  69 6F 6E 20 34			imul		bp,0x6e[bx],0x3420
3F4F  2E 30 30				xor		cs:[bx+si],dh
3F52  20 28				and		[bx+si],ch
3F54  43				inc		bx
3F55  29 43 6F				sub		0x6f[bp+di],ax
3F58  70 79				jo		L$955
3F5A  72 69				jb		L$954
3F5C  67 68 74 20			push		0x2074
3F60  31 39				xor		[bx+di],di
3F62  38 38				cmp		[bx+si],bh
3F64  20 4D 69				and		0x69[di],cl
3F67  63 72 6F				arpl		0x6f[bp+si],si
3F6A  73 6F				jae		L$956
3F6C  66 74 20				je		L$951
3F6F  43				inc		bx
3F70  6F				outsw
3F71  72 70				jb		L$957
3F73  4C				dec		sp
3F74  69 63 65 6E 73			imul		sp,0x65[bp+di],0x736e
3F79  65 64 20 4D 61			and
3F7E  74 65				je		L$958
3F80  72 69				jb		L$959
3F82  61				popa
3F83  6C				insb
3F84  20 2D				and		[di],ch
3F86  20 50 72				and		0x72[bx+si],dl
3F89  6F				outsw
3F8A  70 65				jo		L$960
3F8C  72 74				jb		L$961
3F8E  79                                              y
3F8F				L$951:
3F8F  20 6F                                           DW		     0x3f8f
				; The label referred to here is an undefined location
L$952
3F91  66 20 4D 69			and		0x69[di],cl
3F95  63 72 6F				arpl		0x6f[bp+si],si
3F98  73 6F				jae		L$962
3F9A  66 74 20				je		L$953
3F9D  20 00				and		[bx+si],al
3F9F  00 00				add		[bx+si],al
3FA1  00 00				add		[bx+si],al
3FA3  00 00				add		[bx+si],al
3FA5  00 00				add		[bx+si],al
3FA7  00 00				add		[bx+si],al
3FA9  00 00				add		[bx+si],al
3FAB  00 00				add		[bx+si],al
3FAD  00 00				add		[bx+si],al
3FAF  00                                              .
3FB0				L$952:
3FB0  00 00				add		[bx+si],al
3FB2  00 00				add		[bx+si],al
3FB4  00 00				add		[bx+si],al
3FB6  00 00				add		[bx+si],al
3FB8  00 00				add		[bx+si],al
3FBA  00 00				add		[bx+si],al
3FBC  00                                              .
3FBD				L$953:
3FBD  00 00				add		[bx+si],al
3FBF  00 00				add		[bx+si],al
3FC1  00 00				add		[bx+si],al
3FC3  00 00				add		[bx+si],al
3FC5				L$954:
3FC5  00 00				add		[bx+si],al
3FC7  00 00				add		[bx+si],al
3FC9  00 00				add		[bx+si],al
3FCB  00 00				add		[bx+si],al
3FCD  00 00				add		[bx+si],al
3FCF  00 00				add		[bx+si],al
3FD1  00 00				add		[bx+si],al
3FD3				L$955:
3FD3  00 00				add		[bx+si],al
3FD5  00 00				add		[bx+si],al
3FD7  00 00				add		[bx+si],al
3FD9  00 00				add		[bx+si],al
3FDB				L$956:
3FDB  00 00				add		[bx+si],al
3FDD  00 00				add		[bx+si],al
3FDF  00 00				add		[bx+si],al
3FE1  00 00				add		[bx+si],al
3FE3				L$957:
3FE3  00 00				add		[bx+si],al
3FE5				L$958:
3FE5  00 00				add		[bx+si],al
3FE7  00 00				add		[bx+si],al
3FE9  00 00				add		[bx+si],al
3FEB				L$959:
3FEB  00 00				add		[bx+si],al
3FED  00 00				add		[bx+si],al
3FEF  00 00				add		[bx+si],al
3FF1				L$960:
3FF1  00 00				add		[bx+si],al
3FF3  00 00				add		[bx+si],al
3FF5  00 00				add		[bx+si],al
3FF7  00 00				add		[bx+si],al
3FF9  00 00				add		[bx+si],al
3FFB  00 00				add		[bx+si],al
3FFD  00 00				add		[bx+si],al
3FFF  00 00				add		[bx+si],al
4001  00                                              .
4002				L$961:
4002  00 00				add		[bx+si],al
4004  00 00				add		[bx+si],al
4006  00 00				add		[bx+si],al
4008  00                                              .
4009				L$962:
4009  00 00				add		[bx+si],al
400B  00 00				add		[bx+si],al
400D  00 00				add		[bx+si],al
400F  00 00				add		[bx+si],al
4011  00 00				add		[bx+si],al
4013  00 00				add		[bx+si],al
4015  00 00				add		[bx+si],al
4017  00 00				add		[bx+si],al
4019  00 00				add		[bx+si],al
401B  00 00				add		[bx+si],al
401D  00 00				add		[bx+si],al
401F  00 00				add		[bx+si],al
4021  00 00				add		[bx+si],al
4023  00 00				add		[bx+si],al
4025  00 00				add		[bx+si],al
4027  00 00				add		[bx+si],al
4029  00 00				add		[bx+si],al
402B  00 00				add		[bx+si],al
402D  00 00				add		[bx+si],al
402F  00 00				add		[bx+si],al
4031  00 00				add		[bx+si],al
4033  00 00				add		[bx+si],al
4035  00 FF				add		bh,bh
4037  FF 00				inc		word ptr [bx+si]
4039  00 00				add		[bx+si],al
403B  00 00				add		[bx+si],al
403D  00 00				add		[bx+si],al
403F  00 00				add		[bx+si],al
4041  00 00				add		[bx+si],al
4043  00 00				add		[bx+si],al
4045  00 00				add		[bx+si],al
4047  00 00				add		[bx+si],al
4049  00 00				add		[bx+si],al
404B  00 00				add		[bx+si],al
404D  00 00				add		[bx+si],al
404F  00 00				add		[bx+si],al
4051  00 00				add		[bx+si],al
4053  00 00				add		[bx+si],al
4055  00 00				add		[bx+si],al
4057  00 00				add		[bx+si],al
4059  00 00				add		[bx+si],al
405B  00 00				add		[bx+si],al
405D  00 00				add		[bx+si],al
405F  00 FF				add		bh,bh
4061  00 00				add		[bx+si],al
4063  00 00				add		[bx+si],al
4065  FF 00				inc		word ptr [bx+si]
4067  00 00				add		[bx+si],al
4069  00 5B 5D				add		0x5d[bp+di],bl
406C  7C 3C				jl		L$963
406E  3E 2B 3D				sub		di,ds:[di]
4071  3B 22				cmp		sp,[bp+si]
4073  00 40 28				add		0x28[bx+si],al
4076  23 29				and		bp,[bx+di]
4078  63 6D 73				arpl		0x73[di],bp
407B  75 62				jne		L$965
407D  73 74				jae		L$966
407F  72 2E				jb		L$964
4081  63 09				arpl		[bx+di],cx
4083  31 2E 31 20			xor		ds:[0x2031],bp
4087  38 36 2F 30			cmp		ds:[0x302f],dh
408B  36 2F				das
408D  31 37				xor		[bx],si
408F  00 74 04				add		0x4[si],dh
4092  00 00				add		[bx+si],al
4094  00 00				add		[bx+si],al
4096  00 00				add		[bx+si],al
4098  9B				fwait
4099  24 00				and		al,0x00
409B  00 C0				add		al,al
409D  03 00				add		ax,[bx+si]
409F  00 00				add		[bx+si],al
40A1  00 00				add		[bx+si],al
40A3  00 00				add		[bx+si],al
40A5  00 00				add		[bx+si],al
40A7  00 00				add		[bx+si],al
40A9  00                                              .
40AA				L$963:
40AA  00 00				add		[bx+si],al
40AC  00 00				add		[bx+si],al
40AE  00                                              .
40AF				L$964:
40AF  00 00				add		[bx+si],al
40B1  00 00				add		[bx+si],al
40B3  00 00				add		[bx+si],al
40B5  00 00				add		[bx+si],al
40B7  00 00				add		[bx+si],al
40B9  00 00				add		[bx+si],al
40BB  00 00				add		[bx+si],al
40BD  00 00				add		[bx+si],al
40BF  00 00				add		[bx+si],al
40C1  00 00				add		[bx+si],al
40C3  00 00				add		[bx+si],al
40C5  00 00				add		[bx+si],al
40C7  00 00				add		[bx+si],al
40C9  00 00				add		[bx+si],al
40CB  00 00				add		[bx+si],al
40CD  00 00				add		[bx+si],al
40CF  00 00				add		[bx+si],al
40D1  00 00				add		[bx+si],al
40D3  00 00				add		[bx+si],al
40D5  00 00				add		[bx+si],al
40D7  00 00				add		[bx+si],al
40D9  00 00				add		[bx+si],al
40DB  00 00				add		[bx+si],al
40DD  00 00				add		[bx+si],al
40DF				L$965:
40DF  00 00				add		[bx+si],al
40E1  00 00				add		[bx+si],al
40E3  00 00				add		[bx+si],al
40E5  00 00				add		[bx+si],al
40E7  00 00				add		[bx+si],al
40E9  00 9A 04 3B			add		0x3b04[bp+si],bl
40ED  43				inc		bx
40EE  5F				pop		di
40EF  46				inc		si
40F0  49				dec		cx
40F1  4C				dec		sp
40F2  45				inc		bp
40F3				L$966:
40F3  5F				pop		di
40F4  49				dec		cx
40F5  4E				dec		si
40F6  46				inc		si
40F7  4F				dec		di
40F8  00 00				add		[bx+si],al
40FA  00 00				add		[bx+si],al
40FC  00 00				add		[bx+si],al
40FE  00 00				add		[bx+si],al
4100  00 00				add		[bx+si],al
4102  00 00				add		[bx+si],al
4104  00 00				add		[bx+si],al
4106  00 00				add		[bx+si],al
4108  00 00				add		[bx+si],al
410A  00 00				add		[bx+si],al
410C  00 00				add		[bx+si],al
410E  00 00				add		[bx+si],al
4110  00 00				add		[bx+si],al
4112  14 00				adc		al,0x00
4114  81 81 81 01 01 00			add		word ptr 0x181[bx+di],0x0001
411A  00 00				add		[bx+si],al
411C  00 00				add		[bx+si],al
411E  00 00				add		[bx+si],al
4120  00 00				add		[bx+si],al
4122  00 00				add		[bx+si],al
4124  00 00				add		[bx+si],al
4126  00 00				add		[bx+si],al
4128  00 00				add		[bx+si],al
412A  00 00				add		[bx+si],al
412C  00 00				add		[bx+si],al
412E  32 05				xor		al,[di]
4130  C0 03 43				rol		byte ptr [bp+di],0x43
4133  00 00				add		[bx+si],al
4135  00 00				add		[bx+si],al
4137  00 00				add		[bx+si],al
4139  00 00				add		[bx+si],al
413B  00 00				add		[bx+si],al
413D  00 80 0F 00			add		0xf[bx+si],al
4141  00 00				add		[bx+si],al
4143  16				push		ss
4144  02 02				add		al,[bp+si]
4146  18 0D				sbb		[di],cl
4148  09 0C				or		[si],cx
414A  0C 0C				or		al,0x0c
414C  07				pop		es
414D  08 16 16 FF			or		ds:[0xff16],dl
4151  12 0D				adc		cl,[di]
4153  12 02				adc		al,[bp+si]
4155  FF 00				inc		word ptr [bx+si]
4157  00 08				add		[bx+si],cl
4159  0A 00				or		al,[bx+si]
415B  00 08				add		[bx+si],cl
415D  0A 01				or		al,[bx+di]
415F  00 00				add		[bx+si],al
4161  00 00				add		[bx+si],al
4163  00 00				add		[bx+si],al
4165  00 02				add		[bp+si],al
4167  01 00				add		[bx+si],ax
4169  00 00				add		[bx+si],al
416B  00 00				add		[bx+si],al
416D  00 02				add		[bp+si],al
416F  02 00				add		al,[bx+si]
4171  00 00				add		[bx+si],al
4173  00 00				add		[bx+si],al
4175  00 84 03 00			add		0x3[si],al
4179  00 00				add		[bx+si],al
417B  00 00				add		[bx+si],al
417D  00 02				add		[bp+si],al
417F  04 00				add		al,0x00
4181  00 00				add		[bx+si],al
4183  00 00				add		[bx+si],al
4185  00 00				add		[bx+si],al
4187  00 00				add		[bx+si],al
4189  00 00				add		[bx+si],al
418B  00 00				add		[bx+si],al
418D  00 00				add		[bx+si],al
418F  00 00				add		[bx+si],al
4191  00 00				add		[bx+si],al
4193  00 00				add		[bx+si],al
4195  00 00				add		[bx+si],al
4197  00 00				add		[bx+si],al
4199  00 00				add		[bx+si],al
419B  00 00				add		[bx+si],al
419D  00 00				add		[bx+si],al
419F  00 00				add		[bx+si],al
41A1  00 00				add		[bx+si],al
41A3  00 00				add		[bx+si],al
41A5  00 00				add		[bx+si],al
41A7  00 00				add		[bx+si],al
41A9  00 00				add		[bx+si],al
41AB  00 00				add		[bx+si],al
41AD  00 00				add		[bx+si],al
41AF  00 00				add		[bx+si],al
41B1  00 00				add		[bx+si],al
41B3  00 00				add		[bx+si],al
41B5  00 00				add		[bx+si],al
41B7  00 00				add		[bx+si],al
41B9  00 00				add		[bx+si],al
41BB  00 00				add		[bx+si],al
41BD  00 00				add		[bx+si],al
41BF  00 00				add		[bx+si],al
41C1  00 00				add		[bx+si],al
41C3  00 00				add		[bx+si],al
41C5  00 00				add		[bx+si],al
41C7  00 00				add		[bx+si],al
41C9  00 00				add		[bx+si],al
41CB  00 00				add		[bx+si],al
41CD  00 00				add		[bx+si],al
41CF  00 00				add		[bx+si],al
41D1  00 00				add		[bx+si],al
41D3  00 00				add		[bx+si],al
41D5  00 00				add		[bx+si],al
41D7  00 00				add		[bx+si],al
41D9  00 00				add		[bx+si],al
41DB  00 00				add		[bx+si],al
41DD  00 00				add		[bx+si],al
41DF  00 00				add		[bx+si],al
41E1  00 00				add		[bx+si],al
41E3  00 00				add		[bx+si],al
41E5  00 00				add		[bx+si],al
41E7  00 00				add		[bx+si],al
41E9  00 00				add		[bx+si],al
41EB  00 00				add		[bx+si],al
41ED  00 00				add		[bx+si],al
41EF  00 00				add		[bx+si],al
41F1  00 00				add		[bx+si],al
41F3  00 00				add		[bx+si],al
41F5  00 00				add		[bx+si],al
41F7  00 01				add		[bx+di],al
41F9  00 00				add		[bx+si],al
41FB  02 00				add		al,[bx+si]
41FD  00 00				add		[bx+si],al
41FF  00 00				add		[bx+si],al
4201  00 00				add		[bx+si],al
4203  00 00				add		[bx+si],al
4205  00 00				add		[bx+si],al
4207  00 00				add		[bx+si],al
4209  00 00				add		[bx+si],al
420B  00 00				add		[bx+si],al
420D  00 00				add		[bx+si],al
420F  00 00				add		[bx+si],al
4211  00 00				add		[bx+si],al
4213  00 00				add		[bx+si],al
4215  00 00				add		[bx+si],al
4217  00 00				add		[bx+si],al
4219  00 00				add		[bx+si],al
421B  00 00				add		[bx+si],al
421D  00 00				add		[bx+si],al
421F  00 00				add		[bx+si],al
4221  00 00				add		[bx+si],al
4223  00 00				add		[bx+si],al
4225  00 00				add		[bx+si],al
4227  00 00				add		[bx+si],al
4229  00 00				add		[bx+si],al
422B  00 00				add		[bx+si],al
422D  00 00				add		[bx+si],al
422F  00 00				add		[bx+si],al
4231  00 00				add		[bx+si],al
4233  00 00				add		[bx+si],al
4235  00 00				add		[bx+si],al
4237  00 00				add		[bx+si],al
4239  00 00				add		[bx+si],al
423B  00 00				add		[bx+si],al
423D  00 00				add		[bx+si],al
423F  00 00				add		[bx+si],al
4241  00 00				add		[bx+si],al
4243  00 00				add		[bx+si],al
4245  00 00				add		[bx+si],al
4247  00 00				add		[bx+si],al
4249  00 00				add		[bx+si],al
424B  00 00				add		[bx+si],al
424D  00 00				add		[bx+si],al
424F  00 00				add		[bx+si],al
4251  00 00				add		[bx+si],al
4253  00 00				add		[bx+si],al
4255  00 00				add		[bx+si],al
4257  00 00				add		[bx+si],al
4259  00 00				add		[bx+si],al
425B  00 00				add		[bx+si],al
425D  00 00				add		[bx+si],al
425F  00 00				add		[bx+si],al
4261  00 00				add		[bx+si],al
4263  00 00				add		[bx+si],al
4265  00 00				add		[bx+si],al
4267  00 00				add		[bx+si],al
4269  00 00				add		[bx+si],al
426B  00 00				add		[bx+si],al
426D  00 00				add		[bx+si],al
426F  00 F0				add		al,dh
4271  05 28 6E				add		ax,0x6e28
4274  75 6C				jne		L$967
4276  6C				insb
4277  29 00				sub		[bx+si],ax
4279  28 6E 75				sub		0x75[bp],ch
427C  6C				insb
427D  6C				insb
427E  29 00				sub		[bx+si],ax
4280  2B 2D				sub		bp,[di]
4282  20 23				and		[bp+di],ah
4284  00 00				add		[bx+si],al
4286  00 00				add		[bx+si],al
4288  00 00				add		[bx+si],al
428A  00 00				add		[bx+si],al
428C  00 00				add		[bx+si],al
428E  00 00				add		[bx+si],al
4290  00 00				add		[bx+si],al
4292  00 00				add		[bx+si],al
4294  00 00				add		[bx+si],al
4296  00 20				add		[bx+si],ah
4298  00 00				add		[bx+si],al
429A  00 00				add		[bx+si],al
429C  50				push		ax
429D  25 50 25				and		ax,0x2550
42A0  50				push		ax
42A1  25 50 25				and		ax,0x2550
42A4  50				push		ax
42A5  25 00 00				and		ax,0x0000
42A8  00 00				add		[bx+si],al
42AA  00 00				add		[bx+si],al
42AC  00 00				add		[bx+si],al
42AE  00 00				add		[bx+si],al
42B0  00 00				add		[bx+si],al
42B2  00 00				add		[bx+si],al
42B4  00 00				add		[bx+si],al
42B6  00 00				add		[bx+si],al
42B8  00 00				add		[bx+si],al
42BA  74 28				je		L$968
42BC  3C 3C				cmp		al,0x3c
42BE  4E				dec		si
42BF  4D				dec		bp
42C0  53				push		bx
42C1  47				inc		di
42C2  3E 3E 00 00			add		ds:[bx+si],al
42C6  52				push		dx
42C7  36 30 30				xor		ss:[bx+si],dh
42CA  30 0D				xor		[di],cl
42CC  0A 2D				or		ch,[di]
42CE  20 73 74				and		0x74[bp+di],dh
42D1  61				popa
42D2  63 6B 20				arpl		0x20[bp+di],bp
42D5  6F				outsw
42D6  76 65				jbe		L$973
42D8  72 66				jb		L$974
42DA  6C				insb
42DB  6F				outsw
42DC  77 0D				ja		L$969
42DE  0A 00				or		al,[bx+si]
42E0  03 00				add		ax,[bx+si]
42E2				L$967:
42E2  52				push		dx
42E3  36                                              6
42E4				L$968:
42E4  30 30				xor		[bx+si],dh
42E6  33 0D				xor		cx,[di]
42E8  0A 2D				or		ch,[di]
42EA  20                                               
42EB				L$969:
42EB  69 6E 74 65 67			imul		bp,0x74[bp],L$976
42F0  65 72 20				jb		L$970
42F3  64 69 76 69 64 65			imul		si,fs:0x69[bp],0x6564
42F9  20 62 79				and		0x79[bp+si],ah
42FC  20 30				and		[bx+si],dh
42FE  0D 0A 00				or		ax,0x000a
4301  09 00				or		[bx+si],ax
4303  52				push		dx
4304  36 30 30				xor		ss:[bx+si],dh
4307  39 0D				cmp		[di],cx
4309  0A 2D				or		ch,[di]
430B  20 6E 6F				and		0x6f[bp],ch
430E  74 20				je		L$971
4310  65 6E				outs		dx,byte ptr gs:[si]
4312  6F				outsw
4313				L$970:
4313  75 67				jne		L$979
4315  68 20 73				push		0x7320
4318  70 61				jo		L$978
431A  63 65 20				arpl		0x20[di],sp
431D  66 6F				outsd
431F  72 20				jb		L$975
4321  65 6E				outs		dx,byte ptr gs:[si]
4323  76 69				jbe		L$981
	     0x4326		; The label referred to here is an undefined location
4325  72 6F				jb		0x00004396
4327  6E				outsb
4328  6D				insw
4329  65 6E				outs		dx,byte ptr gs:[si]
432B  74 0D				je		L$972
432D  0A 00				or		al,[bx+si]
432F  FC				cld
4330				L$971:
4330  00 0D				add		[di],cl
4332  0A 00				or		al,[bx+si]
4334  FF 00				inc		word ptr [bx+si]
	     0x4337		; The label referred to here is an undefined location
4336  72 75				jb		0x000043ad
4338  6E				outsb
4339  2D                                              -
433A				L$972:
433A  74 69				je		0x000043a5
433C  6D				insw
433D				L$973:
433D  65 20 65                                        e e
4340				L$974:
4340  72                                              r
4341				L$975:
	     0x4342		; The label referred to here is an undefined location
4341  72 6F				jb		0x000043b2
4343  72 20				jb		L$977
4345  00 02				add		[bp+si],al
4347  00 52 36				add		0x36[bp+si],dl
434A  30 30				xor		[bx+si],dh
434C  32 0D				xor		cl,[di]
434E  0A 2D				or		ch,[di]
4350  20 66 6C				and		0x6c[bp],ah
4353  6F				outsw
4354				L$976:
4354  61				popa
	     0x4356		; The label referred to here is an undefined location
4355  74 69				je		0x000043c0
4357  6E				outsb
4358  67 20 70 6F			and		0x6f[eax],dh
435C  69 6E 74 20 6E			imul		bp,0x74[bp],0x6e20
4361  6F				outsw
4362  74 20				je		L$980
4364  6C				insb
4365				L$977:
4365  6F				outsw
4366  61				popa
4367  64 65 64 0D 0A 00			or		ax,0x000a
436D  01 00				add		[bx+si],ax
436F  52				push		dx
4370  36 30 30				xor		ss:[bx+si],dh
4373  31 0D				xor		[di],cx
4375  0A 2D				or		ch,[di]
4377  20 6E 75				and		0x75[bp],ch
437A  6C				insb
437B				L$978:
437B  6C				insb
437C				L$979:
437C  20 70 6F				and		0x6f[bx+si],dh
437F  69 6E 74 65 72			imul		bp,0x74[bp],0x7265
4384				L$980:
4384  20 61 73				and		0x73[bx+di],ah
	     0x4388		; The label referred to here is an undefined location
4387  73 69				jae		0x000043f2
4389  67 6E				outs		dx,byte ptr [esi]
438B  6D				insw
438C  65 6E				outs		dx,byte ptr gs:[si]
438E				L$981:
	     0x438f		; The label referred to here is an undefined location
438E  74 0D				je		0x0000439d
4390  0A 00				or		al,[bx+si]
4392  FF				????
4393  FF				????
4394  FF				????

Routine Size: 17301 bytes,    Routine Base: TEXT + 0000

No disassembly errors

